00000000  CF                iretw
00000001  FA                cli
00000002  ED                in ax,dx
00000003  FE07              inc byte [bx]
00000005  0000              add [bx+si],al
00000007  0103              add [bp+di],ax
00000009  0000              add [bx+si],al
0000000B  800200            add byte [bp+si],0x0
0000000E  0000              add [bx+si],al
00000010  0F0000            sldt [bx+si]
00000013  00B00400          add [bx+si+0x4],dh
00000017  00850020          add [di+0x2000],al
0000001B  0000              add [bx+si],al
0000001D  0000              add [bx+si],al
0000001F  0019              add [bx+di],bl
00000021  0000              add [bx+si],al
00000023  004800            add [bx+si+0x0],cl
00000026  0000              add [bx+si],al
00000028  5F                pop di
00000029  5F                pop di
0000002A  50                push ax
0000002B  41                inc cx
0000002C  47                inc di
0000002D  45                inc bp
0000002E  5A                pop dx
0000002F  45                inc bp
00000030  52                push dx
00000031  4F                dec di
00000032  0000              add [bx+si],al
00000034  0000              add [bx+si],al
00000036  0000              add [bx+si],al
00000038  0000              add [bx+si],al
0000003A  0000              add [bx+si],al
0000003C  0000              add [bx+si],al
0000003E  0000              add [bx+si],al
00000040  0000              add [bx+si],al
00000042  0000              add [bx+si],al
00000044  0100              add [bx+si],ax
00000046  0000              add [bx+si],al
00000048  0000              add [bx+si],al
0000004A  0000              add [bx+si],al
0000004C  0000              add [bx+si],al
0000004E  0000              add [bx+si],al
00000050  0000              add [bx+si],al
00000052  0000              add [bx+si],al
00000054  0000              add [bx+si],al
00000056  0000              add [bx+si],al
00000058  0000              add [bx+si],al
0000005A  0000              add [bx+si],al
0000005C  0000              add [bx+si],al
0000005E  0000              add [bx+si],al
00000060  0000              add [bx+si],al
00000062  0000              add [bx+si],al
00000064  0000              add [bx+si],al
00000066  0000              add [bx+si],al
00000068  1900              sbb [bx+si],ax
0000006A  0000              add [bx+si],al
0000006C  D801              fadd dword [bx+di]
0000006E  0000              add [bx+si],al
00000070  5F                pop di
00000071  5F                pop di
00000072  54                push sp
00000073  45                inc bp
00000074  58                pop ax
00000075  54                push sp
00000076  0000              add [bx+si],al
00000078  0000              add [bx+si],al
0000007A  0000              add [bx+si],al
0000007C  0000              add [bx+si],al
0000007E  0000              add [bx+si],al
00000080  0000              add [bx+si],al
00000082  0000              add [bx+si],al
00000084  0100              add [bx+si],ax
00000086  0000              add [bx+si],al
00000088  0010              add [bx+si],dl
0000008A  0000              add [bx+si],al
0000008C  0000              add [bx+si],al
0000008E  0000              add [bx+si],al
00000090  0000              add [bx+si],al
00000092  0000              add [bx+si],al
00000094  0000              add [bx+si],al
00000096  0000              add [bx+si],al
00000098  0010              add [bx+si],dl
0000009A  0000              add [bx+si],al
0000009C  0000              add [bx+si],al
0000009E  0000              add [bx+si],al
000000A0  07                pop es
000000A1  0000              add [bx+si],al
000000A3  0005              add [di],al
000000A5  0000              add [bx+si],al
000000A7  0005              add [di],al
000000A9  0000              add [bx+si],al
000000AB  0000              add [bx+si],al
000000AD  0000              add [bx+si],al
000000AF  005F5F            add [bx+0x5f],bl
000000B2  7465              jz 0x119
000000B4  7874              js 0x12a
000000B6  0000              add [bx+si],al
000000B8  0000              add [bx+si],al
000000BA  0000              add [bx+si],al
000000BC  0000              add [bx+si],al
000000BE  0000              add [bx+si],al
000000C0  5F                pop di
000000C1  5F                pop di
000000C2  54                push sp
000000C3  45                inc bp
000000C4  58                pop ax
000000C5  54                push sp
000000C6  0000              add [bx+si],al
000000C8  0000              add [bx+si],al
000000CA  0000              add [bx+si],al
000000CC  0000              add [bx+si],al
000000CE  0000              add [bx+si],al
000000D0  90                nop
000000D1  0D0000            or ax,0x0
000000D4  0100              add [bx+si],ax
000000D6  0000              add [bx+si],al
000000D8  B601              mov dh,0x1
000000DA  0000              add [bx+si],al
000000DC  0000              add [bx+si],al
000000DE  0000              add [bx+si],al
000000E0  90                nop
000000E1  0D0000            or ax,0x0
000000E4  0400              add al,0x0
000000E6  0000              add [bx+si],al
000000E8  0000              add [bx+si],al
000000EA  0000              add [bx+si],al
000000EC  0000              add [bx+si],al
000000EE  0000              add [bx+si],al
000000F0  0004              add [si],al
000000F2  00800000          add [bx+si+0x0],al
000000F6  0000              add [bx+si],al
000000F8  0000              add [bx+si],al
000000FA  0000              add [bx+si],al
000000FC  0000              add [bx+si],al
000000FE  0000              add [bx+si],al
00000100  5F                pop di
00000101  5F                pop di
00000102  7374              jnc 0x178
00000104  7562              jnz 0x168
00000106  7300              jnc 0x108
00000108  0000              add [bx+si],al
0000010A  0000              add [bx+si],al
0000010C  0000              add [bx+si],al
0000010E  0000              add [bx+si],al
00000110  5F                pop di
00000111  5F                pop di
00000112  54                push sp
00000113  45                inc bp
00000114  58                pop ax
00000115  54                push sp
00000116  0000              add [bx+si],al
00000118  0000              add [bx+si],al
0000011A  0000              add [bx+si],al
0000011C  0000              add [bx+si],al
0000011E  0000              add [bx+si],al
00000120  46                inc si
00000121  0F0000            sldt [bx+si]
00000124  0100              add [bx+si],ax
00000126  0000              add [bx+si],al
00000128  1200              adc al,[bx+si]
0000012A  0000              add [bx+si],al
0000012C  0000              add [bx+si],al
0000012E  0000              add [bx+si],al
00000130  46                inc si
00000131  0F0000            sldt [bx+si]
00000134  0100              add [bx+si],ax
00000136  0000              add [bx+si],al
00000138  0000              add [bx+si],al
0000013A  0000              add [bx+si],al
0000013C  0000              add [bx+si],al
0000013E  0000              add [bx+si],al
00000140  0804              or [si],al
00000142  00800000          add [bx+si+0x0],al
00000146  0000              add [bx+si],al
00000148  06                push es
00000149  0000              add [bx+si],al
0000014B  0000              add [bx+si],al
0000014D  0000              add [bx+si],al
0000014F  005F5F            add [bx+0x5f],bl
00000152  7374              jnc 0x1c8
00000154  7562              jnz 0x1b8
00000156  5F                pop di
00000157  68656C            push word 0x6c65
0000015A  7065              jo 0x1c1
0000015C  7200              jc 0x15e
0000015E  0000              add [bx+si],al
00000160  5F                pop di
00000161  5F                pop di
00000162  54                push sp
00000163  45                inc bp
00000164  58                pop ax
00000165  54                push sp
00000166  0000              add [bx+si],al
00000168  0000              add [bx+si],al
0000016A  0000              add [bx+si],al
0000016C  0000              add [bx+si],al
0000016E  0000              add [bx+si],al
00000170  58                pop ax
00000171  0F0000            sldt [bx+si]
00000174  0100              add [bx+si],ax
00000176  0000              add [bx+si],al
00000178  2E0000            add [cs:bx+si],al
0000017B  0000              add [bx+si],al
0000017D  0000              add [bx+si],al
0000017F  00580F            add [bx+si+0xf],bl
00000182  0000              add [bx+si],al
00000184  0200              add al,[bx+si]
00000186  0000              add [bx+si],al
00000188  0000              add [bx+si],al
0000018A  0000              add [bx+si],al
0000018C  0000              add [bx+si],al
0000018E  0000              add [bx+si],al
00000190  0004              add [si],al
00000192  00800000          add [bx+si+0x0],al
00000196  0000              add [bx+si],al
00000198  0000              add [bx+si],al
0000019A  0000              add [bx+si],al
0000019C  0000              add [bx+si],al
0000019E  0000              add [bx+si],al
000001A0  5F                pop di
000001A1  5F                pop di
000001A2  637374            arpl [bp+di+0x74],si
000001A5  7269              jc 0x210
000001A7  6E                outsb
000001A8  670000            add [eax],al
000001AB  0000              add [bx+si],al
000001AD  0000              add [bx+si],al
000001AF  005F5F            add [bx+0x5f],bl
000001B2  54                push sp
000001B3  45                inc bp
000001B4  58                pop ax
000001B5  54                push sp
000001B6  0000              add [bx+si],al
000001B8  0000              add [bx+si],al
000001BA  0000              add [bx+si],al
000001BC  0000              add [bx+si],al
000001BE  0000              add [bx+si],al
000001C0  860F              xchg cl,[bx]
000001C2  0000              add [bx+si],al
000001C4  0100              add [bx+si],ax
000001C6  0000              add [bx+si],al
000001C8  2400              and al,0x0
000001CA  0000              add [bx+si],al
000001CC  0000              add [bx+si],al
000001CE  0000              add [bx+si],al
000001D0  860F              xchg cl,[bx]
000001D2  0000              add [bx+si],al
000001D4  0000              add [bx+si],al
000001D6  0000              add [bx+si],al
000001D8  0000              add [bx+si],al
000001DA  0000              add [bx+si],al
000001DC  0000              add [bx+si],al
000001DE  0000              add [bx+si],al
000001E0  0200              add al,[bx+si]
000001E2  0000              add [bx+si],al
000001E4  0000              add [bx+si],al
000001E6  0000              add [bx+si],al
000001E8  0000              add [bx+si],al
000001EA  0000              add [bx+si],al
000001EC  0000              add [bx+si],al
000001EE  0000              add [bx+si],al
000001F0  5F                pop di
000001F1  5F                pop di
000001F2  756E              jnz 0x262
000001F4  7769              ja 0x25f
000001F6  6E                outsb
000001F7  645F              fs pop di
000001F9  696E666F00        imul bp,[bp+0x66],word 0x6f
000001FE  0000              add [bx+si],al
00000200  5F                pop di
00000201  5F                pop di
00000202  54                push sp
00000203  45                inc bp
00000204  58                pop ax
00000205  54                push sp
00000206  0000              add [bx+si],al
00000208  0000              add [bx+si],al
0000020A  0000              add [bx+si],al
0000020C  0000              add [bx+si],al
0000020E  0000              add [bx+si],al
00000210  AC                lodsb
00000211  0F0000            sldt [bx+si]
00000214  0100              add [bx+si],ax
00000216  0000              add [bx+si],al
00000218  48                dec ax
00000219  0000              add [bx+si],al
0000021B  0000              add [bx+si],al
0000021D  0000              add [bx+si],al
0000021F  00AC0F00          add [si+0xf],ch
00000223  0002              add [bp+si],al
00000225  0000              add [bx+si],al
00000227  0000              add [bx+si],al
00000229  0000              add [bx+si],al
0000022B  0000              add [bx+si],al
0000022D  0000              add [bx+si],al
0000022F  0000              add [bx+si],al
00000231  0000              add [bx+si],al
00000233  0000              add [bx+si],al
00000235  0000              add [bx+si],al
00000237  0000              add [bx+si],al
00000239  0000              add [bx+si],al
0000023B  0000              add [bx+si],al
0000023D  0000              add [bx+si],al
0000023F  0019              add [bx+di],bl
00000241  0000              add [bx+si],al
00000243  00E8              add al,ch
00000245  0000              add [bx+si],al
00000247  005F5F            add [bx+0x5f],bl
0000024A  44                inc sp
0000024B  41                inc cx
0000024C  54                push sp
0000024D  41                inc cx
0000024E  0000              add [bx+si],al
00000250  0000              add [bx+si],al
00000252  0000              add [bx+si],al
00000254  0000              add [bx+si],al
00000256  0000              add [bx+si],al
00000258  0010              add [bx+si],dl
0000025A  0000              add [bx+si],al
0000025C  0100              add [bx+si],ax
0000025E  0000              add [bx+si],al
00000260  0010              add [bx+si],dl
00000262  0000              add [bx+si],al
00000264  0000              add [bx+si],al
00000266  0000              add [bx+si],al
00000268  0010              add [bx+si],dl
0000026A  0000              add [bx+si],al
0000026C  0000              add [bx+si],al
0000026E  0000              add [bx+si],al
00000270  0010              add [bx+si],dl
00000272  0000              add [bx+si],al
00000274  0000              add [bx+si],al
00000276  0000              add [bx+si],al
00000278  07                pop es
00000279  0000              add [bx+si],al
0000027B  0003              add [bp+di],al
0000027D  0000              add [bx+si],al
0000027F  0002              add [bp+si],al
00000281  0000              add [bx+si],al
00000283  0000              add [bx+si],al
00000285  0000              add [bx+si],al
00000287  005F5F            add [bx+0x5f],bl
0000028A  6E                outsb
0000028B  6C                insb
0000028C  5F                pop di
0000028D  7379              jnc 0x308
0000028F  6D                insw
00000290  626F6C            bound bp,[bx+0x6c]
00000293  5F                pop di
00000294  7074              jo 0x30a
00000296  7200              jc 0x298
00000298  5F                pop di
00000299  5F                pop di
0000029A  44                inc sp
0000029B  41                inc cx
0000029C  54                push sp
0000029D  41                inc cx
0000029E  0000              add [bx+si],al
000002A0  0000              add [bx+si],al
000002A2  0000              add [bx+si],al
000002A4  0000              add [bx+si],al
000002A6  0000              add [bx+si],al
000002A8  0010              add [bx+si],dl
000002AA  0000              add [bx+si],al
000002AC  0100              add [bx+si],ax
000002AE  0000              add [bx+si],al
000002B0  1000              adc [bx+si],al
000002B2  0000              add [bx+si],al
000002B4  0000              add [bx+si],al
000002B6  0000              add [bx+si],al
000002B8  0010              add [bx+si],dl
000002BA  0000              add [bx+si],al
000002BC  0300              add ax,[bx+si]
000002BE  0000              add [bx+si],al
000002C0  0000              add [bx+si],al
000002C2  0000              add [bx+si],al
000002C4  0000              add [bx+si],al
000002C6  0000              add [bx+si],al
000002C8  06                push es
000002C9  0000              add [bx+si],al
000002CB  0003              add [bp+di],al
000002CD  0000              add [bx+si],al
000002CF  0000              add [bx+si],al
000002D1  0000              add [bx+si],al
000002D3  0000              add [bx+si],al
000002D5  0000              add [bx+si],al
000002D7  005F5F            add [bx+0x5f],bl
000002DA  6C                insb
000002DB  61                popaw
000002DC  5F                pop di
000002DD  7379              jnc 0x358
000002DF  6D                insw
000002E0  626F6C            bound bp,[bx+0x6c]
000002E3  5F                pop di
000002E4  7074              jo 0x35a
000002E6  7200              jc 0x2e8
000002E8  5F                pop di
000002E9  5F                pop di
000002EA  44                inc sp
000002EB  41                inc cx
000002EC  54                push sp
000002ED  41                inc cx
000002EE  0000              add [bx+si],al
000002F0  0000              add [bx+si],al
000002F2  0000              add [bx+si],al
000002F4  0000              add [bx+si],al
000002F6  0000              add [bx+si],al
000002F8  1010              adc [bx+si],dl
000002FA  0000              add [bx+si],al
000002FC  0100              add [bx+si],ax
000002FE  0000              add [bx+si],al
00000300  1800              sbb [bx+si],al
00000302  0000              add [bx+si],al
00000304  0000              add [bx+si],al
00000306  0000              add [bx+si],al
00000308  1010              adc [bx+si],dl
0000030A  0000              add [bx+si],al
0000030C  0300              add ax,[bx+si]
0000030E  0000              add [bx+si],al
00000310  0000              add [bx+si],al
00000312  0000              add [bx+si],al
00000314  0000              add [bx+si],al
00000316  0000              add [bx+si],al
00000318  07                pop es
00000319  0000              add [bx+si],al
0000031B  0005              add [di],al
0000031D  0000              add [bx+si],al
0000031F  0000              add [bx+si],al
00000321  0000              add [bx+si],al
00000323  0000              add [bx+si],al
00000325  0000              add [bx+si],al
00000327  0019              add [bx+di],bl
00000329  0000              add [bx+si],al
0000032B  004800            add [bx+si+0x0],cl
0000032E  0000              add [bx+si],al
00000330  5F                pop di
00000331  5F                pop di
00000332  4C                dec sp
00000333  49                dec cx
00000334  4E                dec si
00000335  4B                dec bx
00000336  45                inc bp
00000337  44                inc sp
00000338  49                dec cx
00000339  54                push sp
0000033A  0000              add [bx+si],al
0000033C  0000              add [bx+si],al
0000033E  0000              add [bx+si],al
00000340  0020              add [bx+si],ah
00000342  0000              add [bx+si],al
00000344  0100              add [bx+si],ax
00000346  0000              add [bx+si],al
00000348  0010              add [bx+si],dl
0000034A  0000              add [bx+si],al
0000034C  0000              add [bx+si],al
0000034E  0000              add [bx+si],al
00000350  0020              add [bx+si],ah
00000352  0000              add [bx+si],al
00000354  0000              add [bx+si],al
00000356  0000              add [bx+si],al
00000358  50                push ax
00000359  0100              add [bx+si],ax
0000035B  0000              add [bx+si],al
0000035D  0000              add [bx+si],al
0000035F  0007              add [bx],al
00000361  0000              add [bx+si],al
00000363  0001              add [bx+di],al
00000365  0000              add [bx+si],al
00000367  0000              add [bx+si],al
00000369  0000              add [bx+si],al
0000036B  0000              add [bx+si],al
0000036D  0000              add [bx+si],al
0000036F  0022              add [bp+si],ah
00000371  0000              add [bx+si],al
00000373  803000            xor byte [bx+si],0x0
00000376  0000              add [bx+si],al
00000378  0020              add [bx+si],ah
0000037A  0000              add [bx+si],al
0000037C  0800              or [bx+si],al
0000037E  0000              add [bx+si],al
00000380  0820              or [bx+si],ah
00000382  0000              add [bx+si],al
00000384  1800              sbb [bx+si],al
00000386  0000              add [bx+si],al
00000388  0000              add [bx+si],al
0000038A  0000              add [bx+si],al
0000038C  0000              add [bx+si],al
0000038E  0000              add [bx+si],al
00000390  2020              and [bx+si],ah
00000392  0000              add [bx+si],al
00000394  3000              xor [bx+si],al
00000396  0000              add [bx+si],al
00000398  50                push ax
00000399  2000              and [bx+si],al
0000039B  0030              add [bx+si],dh
0000039D  0000              add [bx+si],al
0000039F  0002              add [bp+si],al
000003A1  0000              add [bx+si],al
000003A3  0018              add [bx+si],bl
000003A5  0000              add [bx+si],al
000003A7  00882000          add [bx+si+0x20],cl
000003AB  00060000          add [0x0],al
000003AF  0008              add [bx+si],cl
000003B1  2100              and [bx+si],ax
000003B3  004800            add [bx+si+0x0],cl
000003B6  0000              add [bx+si],al
000003B8  0B00              or ax,[bx+si]
000003BA  0000              add [bx+si],al
000003BC  50                push ax
000003BD  0000              add [bx+si],al
000003BF  0000              add [bx+si],al
000003C1  0000              add [bx+si],al
000003C3  0000              add [bx+si],al
000003C5  0000              add [bx+si],al
000003C7  0000              add [bx+si],al
000003C9  0000              add [bx+si],al
000003CB  0002              add [bp+si],al
000003CD  0000              add [bx+si],al
000003CF  0002              add [bp+si],al
000003D1  0000              add [bx+si],al
000003D3  0004              add [si],al
000003D5  0000              add [bx+si],al
000003D7  0000              add [bx+si],al
000003D9  0000              add [bx+si],al
000003DB  0000              add [bx+si],al
000003DD  0000              add [bx+si],al
000003DF  0000              add [bx+si],al
000003E1  0000              add [bx+si],al
000003E3  0000              add [bx+si],al
000003E5  0000              add [bx+si],al
000003E7  0000              add [bx+si],al
000003E9  0000              add [bx+si],al
000003EB  0000              add [bx+si],al
000003ED  0000              add [bx+si],al
000003EF  00E8              add al,ch
000003F1  2000              and [bx+si],al
000003F3  0008              add [bx+si],cl
000003F5  0000              add [bx+si],al
000003F7  0000              add [bx+si],al
000003F9  0000              add [bx+si],al
000003FB  0000              add [bx+si],al
000003FD  0000              add [bx+si],al
000003FF  0000              add [bx+si],al
00000401  0000              add [bx+si],al
00000403  0000              add [bx+si],al
00000405  0000              add [bx+si],al
00000407  000E0000          add [0x0],cl
0000040B  0020              add [bx+si],ah
0000040D  0000              add [bx+si],al
0000040F  000C              add [si],cl
00000411  0000              add [bx+si],al
00000413  002F              add [bx],ch
00000415  7573              jnz 0x48a
00000417  722F              jc 0x448
00000419  6C                insb
0000041A  69622F6479        imul sp,[bp+si+0x2f],word 0x7964
0000041F  6C                insb
00000420  640000            add [fs:bx+si],al
00000423  0000              add [bx+si],al
00000425  0000              add [bx+si],al
00000427  001B              add [bp+di],bl
00000429  0000              add [bx+si],al
0000042B  0018              add [bx+si],bl
0000042D  0000              add [bx+si],al
0000042F  0033              add [bp+di],dh
00000431  0B28              or bp,[bx+si]
00000433  4D                dec bp
00000434  D1A53C3A          shl word [di+0x3a3c],1
00000438  A841              test al,0x41
0000043A  97                xchg ax,di
0000043B  BCA6C4            mov sp,0xc4a6
0000043E  A26124            mov [0x2461],al
00000441  0000              add [bx+si],al
00000443  0010              add [bx+si],dl
00000445  0000              add [bx+si],al
00000447  0000              add [bx+si],al
00000449  0D0A00            or ax,0xa
0000044C  000D              add [di],cl
0000044E  0A00              or al,[bx+si]
00000450  2A00              sub al,[bx+si]
00000452  0000              add [bx+si],al
00000454  1000              adc [bx+si],al
00000456  0000              add [bx+si],al
00000458  0000              add [bx+si],al
0000045A  0000              add [bx+si],al
0000045C  0000              add [bx+si],al
0000045E  0000              add [bx+si],al
00000460  2800              sub [bx+si],al
00000462  00801800          add [bx+si+0x18],al
00000466  0000              add [bx+si],al
00000468  90                nop
00000469  0D0000            or ax,0x0
0000046C  0000              add [bx+si],al
0000046E  0000              add [bx+si],al
00000470  0000              add [bx+si],al
00000472  0000              add [bx+si],al
00000474  0000              add [bx+si],al
00000476  0000              add [bx+si],al
00000478  0C00              or al,0x0
0000047A  0000              add [bx+si],al
0000047C  3800              cmp [bx+si],al
0000047E  0000              add [bx+si],al
00000480  1800              sbb [bx+si],al
00000482  0000              add [bx+si],al
00000484  0200              add al,[bx+si]
00000486  0000              add [bx+si],al
00000488  0000              add [bx+si],al
0000048A  E404              in al,0x4
0000048C  0000              add [bx+si],al
0000048E  0100              add [bx+si],ax
00000490  2F                das
00000491  7573              jnz 0x506
00000493  722F              jc 0x4c4
00000495  6C                insb
00000496  69622F6C69        imul sp,[bp+si+0x2f],word 0x696c
0000049B  625379            bound dx,[bp+di+0x79]
0000049E  7374              jnc 0x514
000004A0  656D              gs insw
000004A2  2E42              cs inc dx
000004A4  2E64796C          fs jns 0x514
000004A8  6962000000        imul sp,[bp+si+0x0],word 0x0
000004AD  0000              add [bx+si],al
000004AF  00260000          add [0x0],ah
000004B3  0010              add [bx+si],dl
000004B5  0000              add [bx+si],al
000004B7  00802000          add [bx+si+0x20],al
000004BB  0008              add [bx+si],cl
000004BD  0000              add [bx+si],al
000004BF  0029              add [bx+di],ch
000004C1  0000              add [bx+si],al
000004C3  0010              add [bx+si],dl
000004C5  0000              add [bx+si],al
000004C7  00882000          add [bx+si+0x20],cl
000004CB  0000              add [bx+si],al
000004CD  0000              add [bx+si],al
000004CF  0000              add [bx+si],al
000004D1  0000              add [bx+si],al
000004D3  0000              add [bx+si],al
000004D5  0000              add [bx+si],al
000004D7  0000              add [bx+si],al
000004D9  0000              add [bx+si],al
000004DB  0000              add [bx+si],al
000004DD  0000              add [bx+si],al
000004DF  0000              add [bx+si],al
000004E1  0000              add [bx+si],al
000004E3  0000              add [bx+si],al
000004E5  0000              add [bx+si],al
000004E7  0000              add [bx+si],al
000004E9  0000              add [bx+si],al
000004EB  0000              add [bx+si],al
000004ED  0000              add [bx+si],al
000004EF  0000              add [bx+si],al
000004F1  0000              add [bx+si],al
000004F3  0000              add [bx+si],al
000004F5  0000              add [bx+si],al
000004F7  0000              add [bx+si],al
000004F9  0000              add [bx+si],al
000004FB  0000              add [bx+si],al
000004FD  0000              add [bx+si],al
000004FF  0000              add [bx+si],al
00000501  0000              add [bx+si],al
00000503  0000              add [bx+si],al
00000505  0000              add [bx+si],al
00000507  0000              add [bx+si],al
00000509  0000              add [bx+si],al
0000050B  0000              add [bx+si],al
0000050D  0000              add [bx+si],al
0000050F  0000              add [bx+si],al
00000511  0000              add [bx+si],al
00000513  0000              add [bx+si],al
00000515  0000              add [bx+si],al
00000517  0000              add [bx+si],al
00000519  0000              add [bx+si],al
0000051B  0000              add [bx+si],al
0000051D  0000              add [bx+si],al
0000051F  0000              add [bx+si],al
00000521  0000              add [bx+si],al
00000523  0000              add [bx+si],al
00000525  0000              add [bx+si],al
00000527  0000              add [bx+si],al
00000529  0000              add [bx+si],al
0000052B  0000              add [bx+si],al
0000052D  0000              add [bx+si],al
0000052F  0000              add [bx+si],al
00000531  0000              add [bx+si],al
00000533  0000              add [bx+si],al
00000535  0000              add [bx+si],al
00000537  0000              add [bx+si],al
00000539  0000              add [bx+si],al
0000053B  0000              add [bx+si],al
0000053D  0000              add [bx+si],al
0000053F  0000              add [bx+si],al
00000541  0000              add [bx+si],al
00000543  0000              add [bx+si],al
00000545  0000              add [bx+si],al
00000547  0000              add [bx+si],al
00000549  0000              add [bx+si],al
0000054B  0000              add [bx+si],al
0000054D  0000              add [bx+si],al
0000054F  0000              add [bx+si],al
00000551  0000              add [bx+si],al
00000553  0000              add [bx+si],al
00000555  0000              add [bx+si],al
00000557  0000              add [bx+si],al
00000559  0000              add [bx+si],al
0000055B  0000              add [bx+si],al
0000055D  0000              add [bx+si],al
0000055F  0000              add [bx+si],al
00000561  0000              add [bx+si],al
00000563  0000              add [bx+si],al
00000565  0000              add [bx+si],al
00000567  0000              add [bx+si],al
00000569  0000              add [bx+si],al
0000056B  0000              add [bx+si],al
0000056D  0000              add [bx+si],al
0000056F  0000              add [bx+si],al
00000571  0000              add [bx+si],al
00000573  0000              add [bx+si],al
00000575  0000              add [bx+si],al
00000577  0000              add [bx+si],al
00000579  0000              add [bx+si],al
0000057B  0000              add [bx+si],al
0000057D  0000              add [bx+si],al
0000057F  0000              add [bx+si],al
00000581  0000              add [bx+si],al
00000583  0000              add [bx+si],al
00000585  0000              add [bx+si],al
00000587  0000              add [bx+si],al
00000589  0000              add [bx+si],al
0000058B  0000              add [bx+si],al
0000058D  0000              add [bx+si],al
0000058F  0000              add [bx+si],al
00000591  0000              add [bx+si],al
00000593  0000              add [bx+si],al
00000595  0000              add [bx+si],al
00000597  0000              add [bx+si],al
00000599  0000              add [bx+si],al
0000059B  0000              add [bx+si],al
0000059D  0000              add [bx+si],al
0000059F  0000              add [bx+si],al
000005A1  0000              add [bx+si],al
000005A3  0000              add [bx+si],al
000005A5  0000              add [bx+si],al
000005A7  0000              add [bx+si],al
000005A9  0000              add [bx+si],al
000005AB  0000              add [bx+si],al
000005AD  0000              add [bx+si],al
000005AF  0000              add [bx+si],al
000005B1  0000              add [bx+si],al
000005B3  0000              add [bx+si],al
000005B5  0000              add [bx+si],al
000005B7  0000              add [bx+si],al
000005B9  0000              add [bx+si],al
000005BB  0000              add [bx+si],al
000005BD  0000              add [bx+si],al
000005BF  0000              add [bx+si],al
000005C1  0000              add [bx+si],al
000005C3  0000              add [bx+si],al
000005C5  0000              add [bx+si],al
000005C7  0000              add [bx+si],al
000005C9  0000              add [bx+si],al
000005CB  0000              add [bx+si],al
000005CD  0000              add [bx+si],al
000005CF  0000              add [bx+si],al
000005D1  0000              add [bx+si],al
000005D3  0000              add [bx+si],al
000005D5  0000              add [bx+si],al
000005D7  0000              add [bx+si],al
000005D9  0000              add [bx+si],al
000005DB  0000              add [bx+si],al
000005DD  0000              add [bx+si],al
000005DF  0000              add [bx+si],al
000005E1  0000              add [bx+si],al
000005E3  0000              add [bx+si],al
000005E5  0000              add [bx+si],al
000005E7  0000              add [bx+si],al
000005E9  0000              add [bx+si],al
000005EB  0000              add [bx+si],al
000005ED  0000              add [bx+si],al
000005EF  0000              add [bx+si],al
000005F1  0000              add [bx+si],al
000005F3  0000              add [bx+si],al
000005F5  0000              add [bx+si],al
000005F7  0000              add [bx+si],al
000005F9  0000              add [bx+si],al
000005FB  0000              add [bx+si],al
000005FD  0000              add [bx+si],al
000005FF  0000              add [bx+si],al
00000601  0000              add [bx+si],al
00000603  0000              add [bx+si],al
00000605  0000              add [bx+si],al
00000607  0000              add [bx+si],al
00000609  0000              add [bx+si],al
0000060B  0000              add [bx+si],al
0000060D  0000              add [bx+si],al
0000060F  0000              add [bx+si],al
00000611  0000              add [bx+si],al
00000613  0000              add [bx+si],al
00000615  0000              add [bx+si],al
00000617  0000              add [bx+si],al
00000619  0000              add [bx+si],al
0000061B  0000              add [bx+si],al
0000061D  0000              add [bx+si],al
0000061F  0000              add [bx+si],al
00000621  0000              add [bx+si],al
00000623  0000              add [bx+si],al
00000625  0000              add [bx+si],al
00000627  0000              add [bx+si],al
00000629  0000              add [bx+si],al
0000062B  0000              add [bx+si],al
0000062D  0000              add [bx+si],al
0000062F  0000              add [bx+si],al
00000631  0000              add [bx+si],al
00000633  0000              add [bx+si],al
00000635  0000              add [bx+si],al
00000637  0000              add [bx+si],al
00000639  0000              add [bx+si],al
0000063B  0000              add [bx+si],al
0000063D  0000              add [bx+si],al
0000063F  0000              add [bx+si],al
00000641  0000              add [bx+si],al
00000643  0000              add [bx+si],al
00000645  0000              add [bx+si],al
00000647  0000              add [bx+si],al
00000649  0000              add [bx+si],al
0000064B  0000              add [bx+si],al
0000064D  0000              add [bx+si],al
0000064F  0000              add [bx+si],al
00000651  0000              add [bx+si],al
00000653  0000              add [bx+si],al
00000655  0000              add [bx+si],al
00000657  0000              add [bx+si],al
00000659  0000              add [bx+si],al
0000065B  0000              add [bx+si],al
0000065D  0000              add [bx+si],al
0000065F  0000              add [bx+si],al
00000661  0000              add [bx+si],al
00000663  0000              add [bx+si],al
00000665  0000              add [bx+si],al
00000667  0000              add [bx+si],al
00000669  0000              add [bx+si],al
0000066B  0000              add [bx+si],al
0000066D  0000              add [bx+si],al
0000066F  0000              add [bx+si],al
00000671  0000              add [bx+si],al
00000673  0000              add [bx+si],al
00000675  0000              add [bx+si],al
00000677  0000              add [bx+si],al
00000679  0000              add [bx+si],al
0000067B  0000              add [bx+si],al
0000067D  0000              add [bx+si],al
0000067F  0000              add [bx+si],al
00000681  0000              add [bx+si],al
00000683  0000              add [bx+si],al
00000685  0000              add [bx+si],al
00000687  0000              add [bx+si],al
00000689  0000              add [bx+si],al
0000068B  0000              add [bx+si],al
0000068D  0000              add [bx+si],al
0000068F  0000              add [bx+si],al
00000691  0000              add [bx+si],al
00000693  0000              add [bx+si],al
00000695  0000              add [bx+si],al
00000697  0000              add [bx+si],al
00000699  0000              add [bx+si],al
0000069B  0000              add [bx+si],al
0000069D  0000              add [bx+si],al
0000069F  0000              add [bx+si],al
000006A1  0000              add [bx+si],al
000006A3  0000              add [bx+si],al
000006A5  0000              add [bx+si],al
000006A7  0000              add [bx+si],al
000006A9  0000              add [bx+si],al
000006AB  0000              add [bx+si],al
000006AD  0000              add [bx+si],al
000006AF  0000              add [bx+si],al
000006B1  0000              add [bx+si],al
000006B3  0000              add [bx+si],al
000006B5  0000              add [bx+si],al
000006B7  0000              add [bx+si],al
000006B9  0000              add [bx+si],al
000006BB  0000              add [bx+si],al
000006BD  0000              add [bx+si],al
000006BF  0000              add [bx+si],al
000006C1  0000              add [bx+si],al
000006C3  0000              add [bx+si],al
000006C5  0000              add [bx+si],al
000006C7  0000              add [bx+si],al
000006C9  0000              add [bx+si],al
000006CB  0000              add [bx+si],al
000006CD  0000              add [bx+si],al
000006CF  0000              add [bx+si],al
000006D1  0000              add [bx+si],al
000006D3  0000              add [bx+si],al
000006D5  0000              add [bx+si],al
000006D7  0000              add [bx+si],al
000006D9  0000              add [bx+si],al
000006DB  0000              add [bx+si],al
000006DD  0000              add [bx+si],al
000006DF  0000              add [bx+si],al
000006E1  0000              add [bx+si],al
000006E3  0000              add [bx+si],al
000006E5  0000              add [bx+si],al
000006E7  0000              add [bx+si],al
000006E9  0000              add [bx+si],al
000006EB  0000              add [bx+si],al
000006ED  0000              add [bx+si],al
000006EF  0000              add [bx+si],al
000006F1  0000              add [bx+si],al
000006F3  0000              add [bx+si],al
000006F5  0000              add [bx+si],al
000006F7  0000              add [bx+si],al
000006F9  0000              add [bx+si],al
000006FB  0000              add [bx+si],al
000006FD  0000              add [bx+si],al
000006FF  0000              add [bx+si],al
00000701  0000              add [bx+si],al
00000703  0000              add [bx+si],al
00000705  0000              add [bx+si],al
00000707  0000              add [bx+si],al
00000709  0000              add [bx+si],al
0000070B  0000              add [bx+si],al
0000070D  0000              add [bx+si],al
0000070F  0000              add [bx+si],al
00000711  0000              add [bx+si],al
00000713  0000              add [bx+si],al
00000715  0000              add [bx+si],al
00000717  0000              add [bx+si],al
00000719  0000              add [bx+si],al
0000071B  0000              add [bx+si],al
0000071D  0000              add [bx+si],al
0000071F  0000              add [bx+si],al
00000721  0000              add [bx+si],al
00000723  0000              add [bx+si],al
00000725  0000              add [bx+si],al
00000727  0000              add [bx+si],al
00000729  0000              add [bx+si],al
0000072B  0000              add [bx+si],al
0000072D  0000              add [bx+si],al
0000072F  0000              add [bx+si],al
00000731  0000              add [bx+si],al
00000733  0000              add [bx+si],al
00000735  0000              add [bx+si],al
00000737  0000              add [bx+si],al
00000739  0000              add [bx+si],al
0000073B  0000              add [bx+si],al
0000073D  0000              add [bx+si],al
0000073F  0000              add [bx+si],al
00000741  0000              add [bx+si],al
00000743  0000              add [bx+si],al
00000745  0000              add [bx+si],al
00000747  0000              add [bx+si],al
00000749  0000              add [bx+si],al
0000074B  0000              add [bx+si],al
0000074D  0000              add [bx+si],al
0000074F  0000              add [bx+si],al
00000751  0000              add [bx+si],al
00000753  0000              add [bx+si],al
00000755  0000              add [bx+si],al
00000757  0000              add [bx+si],al
00000759  0000              add [bx+si],al
0000075B  0000              add [bx+si],al
0000075D  0000              add [bx+si],al
0000075F  0000              add [bx+si],al
00000761  0000              add [bx+si],al
00000763  0000              add [bx+si],al
00000765  0000              add [bx+si],al
00000767  0000              add [bx+si],al
00000769  0000              add [bx+si],al
0000076B  0000              add [bx+si],al
0000076D  0000              add [bx+si],al
0000076F  0000              add [bx+si],al
00000771  0000              add [bx+si],al
00000773  0000              add [bx+si],al
00000775  0000              add [bx+si],al
00000777  0000              add [bx+si],al
00000779  0000              add [bx+si],al
0000077B  0000              add [bx+si],al
0000077D  0000              add [bx+si],al
0000077F  0000              add [bx+si],al
00000781  0000              add [bx+si],al
00000783  0000              add [bx+si],al
00000785  0000              add [bx+si],al
00000787  0000              add [bx+si],al
00000789  0000              add [bx+si],al
0000078B  0000              add [bx+si],al
0000078D  0000              add [bx+si],al
0000078F  0000              add [bx+si],al
00000791  0000              add [bx+si],al
00000793  0000              add [bx+si],al
00000795  0000              add [bx+si],al
00000797  0000              add [bx+si],al
00000799  0000              add [bx+si],al
0000079B  0000              add [bx+si],al
0000079D  0000              add [bx+si],al
0000079F  0000              add [bx+si],al
000007A1  0000              add [bx+si],al
000007A3  0000              add [bx+si],al
000007A5  0000              add [bx+si],al
000007A7  0000              add [bx+si],al
000007A9  0000              add [bx+si],al
000007AB  0000              add [bx+si],al
000007AD  0000              add [bx+si],al
000007AF  0000              add [bx+si],al
000007B1  0000              add [bx+si],al
000007B3  0000              add [bx+si],al
000007B5  0000              add [bx+si],al
000007B7  0000              add [bx+si],al
000007B9  0000              add [bx+si],al
000007BB  0000              add [bx+si],al
000007BD  0000              add [bx+si],al
000007BF  0000              add [bx+si],al
000007C1  0000              add [bx+si],al
000007C3  0000              add [bx+si],al
000007C5  0000              add [bx+si],al
000007C7  0000              add [bx+si],al
000007C9  0000              add [bx+si],al
000007CB  0000              add [bx+si],al
000007CD  0000              add [bx+si],al
000007CF  0000              add [bx+si],al
000007D1  0000              add [bx+si],al
000007D3  0000              add [bx+si],al
000007D5  0000              add [bx+si],al
000007D7  0000              add [bx+si],al
000007D9  0000              add [bx+si],al
000007DB  0000              add [bx+si],al
000007DD  0000              add [bx+si],al
000007DF  0000              add [bx+si],al
000007E1  0000              add [bx+si],al
000007E3  0000              add [bx+si],al
000007E5  0000              add [bx+si],al
000007E7  0000              add [bx+si],al
000007E9  0000              add [bx+si],al
000007EB  0000              add [bx+si],al
000007ED  0000              add [bx+si],al
000007EF  0000              add [bx+si],al
000007F1  0000              add [bx+si],al
000007F3  0000              add [bx+si],al
000007F5  0000              add [bx+si],al
000007F7  0000              add [bx+si],al
000007F9  0000              add [bx+si],al
000007FB  0000              add [bx+si],al
000007FD  0000              add [bx+si],al
000007FF  0000              add [bx+si],al
00000801  0000              add [bx+si],al
00000803  0000              add [bx+si],al
00000805  0000              add [bx+si],al
00000807  0000              add [bx+si],al
00000809  0000              add [bx+si],al
0000080B  0000              add [bx+si],al
0000080D  0000              add [bx+si],al
0000080F  0000              add [bx+si],al
00000811  0000              add [bx+si],al
00000813  0000              add [bx+si],al
00000815  0000              add [bx+si],al
00000817  0000              add [bx+si],al
00000819  0000              add [bx+si],al
0000081B  0000              add [bx+si],al
0000081D  0000              add [bx+si],al
0000081F  0000              add [bx+si],al
00000821  0000              add [bx+si],al
00000823  0000              add [bx+si],al
00000825  0000              add [bx+si],al
00000827  0000              add [bx+si],al
00000829  0000              add [bx+si],al
0000082B  0000              add [bx+si],al
0000082D  0000              add [bx+si],al
0000082F  0000              add [bx+si],al
00000831  0000              add [bx+si],al
00000833  0000              add [bx+si],al
00000835  0000              add [bx+si],al
00000837  0000              add [bx+si],al
00000839  0000              add [bx+si],al
0000083B  0000              add [bx+si],al
0000083D  0000              add [bx+si],al
0000083F  0000              add [bx+si],al
00000841  0000              add [bx+si],al
00000843  0000              add [bx+si],al
00000845  0000              add [bx+si],al
00000847  0000              add [bx+si],al
00000849  0000              add [bx+si],al
0000084B  0000              add [bx+si],al
0000084D  0000              add [bx+si],al
0000084F  0000              add [bx+si],al
00000851  0000              add [bx+si],al
00000853  0000              add [bx+si],al
00000855  0000              add [bx+si],al
00000857  0000              add [bx+si],al
00000859  0000              add [bx+si],al
0000085B  0000              add [bx+si],al
0000085D  0000              add [bx+si],al
0000085F  0000              add [bx+si],al
00000861  0000              add [bx+si],al
00000863  0000              add [bx+si],al
00000865  0000              add [bx+si],al
00000867  0000              add [bx+si],al
00000869  0000              add [bx+si],al
0000086B  0000              add [bx+si],al
0000086D  0000              add [bx+si],al
0000086F  0000              add [bx+si],al
00000871  0000              add [bx+si],al
00000873  0000              add [bx+si],al
00000875  0000              add [bx+si],al
00000877  0000              add [bx+si],al
00000879  0000              add [bx+si],al
0000087B  0000              add [bx+si],al
0000087D  0000              add [bx+si],al
0000087F  0000              add [bx+si],al
00000881  0000              add [bx+si],al
00000883  0000              add [bx+si],al
00000885  0000              add [bx+si],al
00000887  0000              add [bx+si],al
00000889  0000              add [bx+si],al
0000088B  0000              add [bx+si],al
0000088D  0000              add [bx+si],al
0000088F  0000              add [bx+si],al
00000891  0000              add [bx+si],al
00000893  0000              add [bx+si],al
00000895  0000              add [bx+si],al
00000897  0000              add [bx+si],al
00000899  0000              add [bx+si],al
0000089B  0000              add [bx+si],al
0000089D  0000              add [bx+si],al
0000089F  0000              add [bx+si],al
000008A1  0000              add [bx+si],al
000008A3  0000              add [bx+si],al
000008A5  0000              add [bx+si],al
000008A7  0000              add [bx+si],al
000008A9  0000              add [bx+si],al
000008AB  0000              add [bx+si],al
000008AD  0000              add [bx+si],al
000008AF  0000              add [bx+si],al
000008B1  0000              add [bx+si],al
000008B3  0000              add [bx+si],al
000008B5  0000              add [bx+si],al
000008B7  0000              add [bx+si],al
000008B9  0000              add [bx+si],al
000008BB  0000              add [bx+si],al
000008BD  0000              add [bx+si],al
000008BF  0000              add [bx+si],al
000008C1  0000              add [bx+si],al
000008C3  0000              add [bx+si],al
000008C5  0000              add [bx+si],al
000008C7  0000              add [bx+si],al
000008C9  0000              add [bx+si],al
000008CB  0000              add [bx+si],al
000008CD  0000              add [bx+si],al
000008CF  0000              add [bx+si],al
000008D1  0000              add [bx+si],al
000008D3  0000              add [bx+si],al
000008D5  0000              add [bx+si],al
000008D7  0000              add [bx+si],al
000008D9  0000              add [bx+si],al
000008DB  0000              add [bx+si],al
000008DD  0000              add [bx+si],al
000008DF  0000              add [bx+si],al
000008E1  0000              add [bx+si],al
000008E3  0000              add [bx+si],al
000008E5  0000              add [bx+si],al
000008E7  0000              add [bx+si],al
000008E9  0000              add [bx+si],al
000008EB  0000              add [bx+si],al
000008ED  0000              add [bx+si],al
000008EF  0000              add [bx+si],al
000008F1  0000              add [bx+si],al
000008F3  0000              add [bx+si],al
000008F5  0000              add [bx+si],al
000008F7  0000              add [bx+si],al
000008F9  0000              add [bx+si],al
000008FB  0000              add [bx+si],al
000008FD  0000              add [bx+si],al
000008FF  0000              add [bx+si],al
00000901  0000              add [bx+si],al
00000903  0000              add [bx+si],al
00000905  0000              add [bx+si],al
00000907  0000              add [bx+si],al
00000909  0000              add [bx+si],al
0000090B  0000              add [bx+si],al
0000090D  0000              add [bx+si],al
0000090F  0000              add [bx+si],al
00000911  0000              add [bx+si],al
00000913  0000              add [bx+si],al
00000915  0000              add [bx+si],al
00000917  0000              add [bx+si],al
00000919  0000              add [bx+si],al
0000091B  0000              add [bx+si],al
0000091D  0000              add [bx+si],al
0000091F  0000              add [bx+si],al
00000921  0000              add [bx+si],al
00000923  0000              add [bx+si],al
00000925  0000              add [bx+si],al
00000927  0000              add [bx+si],al
00000929  0000              add [bx+si],al
0000092B  0000              add [bx+si],al
0000092D  0000              add [bx+si],al
0000092F  0000              add [bx+si],al
00000931  0000              add [bx+si],al
00000933  0000              add [bx+si],al
00000935  0000              add [bx+si],al
00000937  0000              add [bx+si],al
00000939  0000              add [bx+si],al
0000093B  0000              add [bx+si],al
0000093D  0000              add [bx+si],al
0000093F  0000              add [bx+si],al
00000941  0000              add [bx+si],al
00000943  0000              add [bx+si],al
00000945  0000              add [bx+si],al
00000947  0000              add [bx+si],al
00000949  0000              add [bx+si],al
0000094B  0000              add [bx+si],al
0000094D  0000              add [bx+si],al
0000094F  0000              add [bx+si],al
00000951  0000              add [bx+si],al
00000953  0000              add [bx+si],al
00000955  0000              add [bx+si],al
00000957  0000              add [bx+si],al
00000959  0000              add [bx+si],al
0000095B  0000              add [bx+si],al
0000095D  0000              add [bx+si],al
0000095F  0000              add [bx+si],al
00000961  0000              add [bx+si],al
00000963  0000              add [bx+si],al
00000965  0000              add [bx+si],al
00000967  0000              add [bx+si],al
00000969  0000              add [bx+si],al
0000096B  0000              add [bx+si],al
0000096D  0000              add [bx+si],al
0000096F  0000              add [bx+si],al
00000971  0000              add [bx+si],al
00000973  0000              add [bx+si],al
00000975  0000              add [bx+si],al
00000977  0000              add [bx+si],al
00000979  0000              add [bx+si],al
0000097B  0000              add [bx+si],al
0000097D  0000              add [bx+si],al
0000097F  0000              add [bx+si],al
00000981  0000              add [bx+si],al
00000983  0000              add [bx+si],al
00000985  0000              add [bx+si],al
00000987  0000              add [bx+si],al
00000989  0000              add [bx+si],al
0000098B  0000              add [bx+si],al
0000098D  0000              add [bx+si],al
0000098F  0000              add [bx+si],al
00000991  0000              add [bx+si],al
00000993  0000              add [bx+si],al
00000995  0000              add [bx+si],al
00000997  0000              add [bx+si],al
00000999  0000              add [bx+si],al
0000099B  0000              add [bx+si],al
0000099D  0000              add [bx+si],al
0000099F  0000              add [bx+si],al
000009A1  0000              add [bx+si],al
000009A3  0000              add [bx+si],al
000009A5  0000              add [bx+si],al
000009A7  0000              add [bx+si],al
000009A9  0000              add [bx+si],al
000009AB  0000              add [bx+si],al
000009AD  0000              add [bx+si],al
000009AF  0000              add [bx+si],al
000009B1  0000              add [bx+si],al
000009B3  0000              add [bx+si],al
000009B5  0000              add [bx+si],al
000009B7  0000              add [bx+si],al
000009B9  0000              add [bx+si],al
000009BB  0000              add [bx+si],al
000009BD  0000              add [bx+si],al
000009BF  0000              add [bx+si],al
000009C1  0000              add [bx+si],al
000009C3  0000              add [bx+si],al
000009C5  0000              add [bx+si],al
000009C7  0000              add [bx+si],al
000009C9  0000              add [bx+si],al
000009CB  0000              add [bx+si],al
000009CD  0000              add [bx+si],al
000009CF  0000              add [bx+si],al
000009D1  0000              add [bx+si],al
000009D3  0000              add [bx+si],al
000009D5  0000              add [bx+si],al
000009D7  0000              add [bx+si],al
000009D9  0000              add [bx+si],al
000009DB  0000              add [bx+si],al
000009DD  0000              add [bx+si],al
000009DF  0000              add [bx+si],al
000009E1  0000              add [bx+si],al
000009E3  0000              add [bx+si],al
000009E5  0000              add [bx+si],al
000009E7  0000              add [bx+si],al
000009E9  0000              add [bx+si],al
000009EB  0000              add [bx+si],al
000009ED  0000              add [bx+si],al
000009EF  0000              add [bx+si],al
000009F1  0000              add [bx+si],al
000009F3  0000              add [bx+si],al
000009F5  0000              add [bx+si],al
000009F7  0000              add [bx+si],al
000009F9  0000              add [bx+si],al
000009FB  0000              add [bx+si],al
000009FD  0000              add [bx+si],al
000009FF  0000              add [bx+si],al
00000A01  0000              add [bx+si],al
00000A03  0000              add [bx+si],al
00000A05  0000              add [bx+si],al
00000A07  0000              add [bx+si],al
00000A09  0000              add [bx+si],al
00000A0B  0000              add [bx+si],al
00000A0D  0000              add [bx+si],al
00000A0F  0000              add [bx+si],al
00000A11  0000              add [bx+si],al
00000A13  0000              add [bx+si],al
00000A15  0000              add [bx+si],al
00000A17  0000              add [bx+si],al
00000A19  0000              add [bx+si],al
00000A1B  0000              add [bx+si],al
00000A1D  0000              add [bx+si],al
00000A1F  0000              add [bx+si],al
00000A21  0000              add [bx+si],al
00000A23  0000              add [bx+si],al
00000A25  0000              add [bx+si],al
00000A27  0000              add [bx+si],al
00000A29  0000              add [bx+si],al
00000A2B  0000              add [bx+si],al
00000A2D  0000              add [bx+si],al
00000A2F  0000              add [bx+si],al
00000A31  0000              add [bx+si],al
00000A33  0000              add [bx+si],al
00000A35  0000              add [bx+si],al
00000A37  0000              add [bx+si],al
00000A39  0000              add [bx+si],al
00000A3B  0000              add [bx+si],al
00000A3D  0000              add [bx+si],al
00000A3F  0000              add [bx+si],al
00000A41  0000              add [bx+si],al
00000A43  0000              add [bx+si],al
00000A45  0000              add [bx+si],al
00000A47  0000              add [bx+si],al
00000A49  0000              add [bx+si],al
00000A4B  0000              add [bx+si],al
00000A4D  0000              add [bx+si],al
00000A4F  0000              add [bx+si],al
00000A51  0000              add [bx+si],al
00000A53  0000              add [bx+si],al
00000A55  0000              add [bx+si],al
00000A57  0000              add [bx+si],al
00000A59  0000              add [bx+si],al
00000A5B  0000              add [bx+si],al
00000A5D  0000              add [bx+si],al
00000A5F  0000              add [bx+si],al
00000A61  0000              add [bx+si],al
00000A63  0000              add [bx+si],al
00000A65  0000              add [bx+si],al
00000A67  0000              add [bx+si],al
00000A69  0000              add [bx+si],al
00000A6B  0000              add [bx+si],al
00000A6D  0000              add [bx+si],al
00000A6F  0000              add [bx+si],al
00000A71  0000              add [bx+si],al
00000A73  0000              add [bx+si],al
00000A75  0000              add [bx+si],al
00000A77  0000              add [bx+si],al
00000A79  0000              add [bx+si],al
00000A7B  0000              add [bx+si],al
00000A7D  0000              add [bx+si],al
00000A7F  0000              add [bx+si],al
00000A81  0000              add [bx+si],al
00000A83  0000              add [bx+si],al
00000A85  0000              add [bx+si],al
00000A87  0000              add [bx+si],al
00000A89  0000              add [bx+si],al
00000A8B  0000              add [bx+si],al
00000A8D  0000              add [bx+si],al
00000A8F  0000              add [bx+si],al
00000A91  0000              add [bx+si],al
00000A93  0000              add [bx+si],al
00000A95  0000              add [bx+si],al
00000A97  0000              add [bx+si],al
00000A99  0000              add [bx+si],al
00000A9B  0000              add [bx+si],al
00000A9D  0000              add [bx+si],al
00000A9F  0000              add [bx+si],al
00000AA1  0000              add [bx+si],al
00000AA3  0000              add [bx+si],al
00000AA5  0000              add [bx+si],al
00000AA7  0000              add [bx+si],al
00000AA9  0000              add [bx+si],al
00000AAB  0000              add [bx+si],al
00000AAD  0000              add [bx+si],al
00000AAF  0000              add [bx+si],al
00000AB1  0000              add [bx+si],al
00000AB3  0000              add [bx+si],al
00000AB5  0000              add [bx+si],al
00000AB7  0000              add [bx+si],al
00000AB9  0000              add [bx+si],al
00000ABB  0000              add [bx+si],al
00000ABD  0000              add [bx+si],al
00000ABF  0000              add [bx+si],al
00000AC1  0000              add [bx+si],al
00000AC3  0000              add [bx+si],al
00000AC5  0000              add [bx+si],al
00000AC7  0000              add [bx+si],al
00000AC9  0000              add [bx+si],al
00000ACB  0000              add [bx+si],al
00000ACD  0000              add [bx+si],al
00000ACF  0000              add [bx+si],al
00000AD1  0000              add [bx+si],al
00000AD3  0000              add [bx+si],al
00000AD5  0000              add [bx+si],al
00000AD7  0000              add [bx+si],al
00000AD9  0000              add [bx+si],al
00000ADB  0000              add [bx+si],al
00000ADD  0000              add [bx+si],al
00000ADF  0000              add [bx+si],al
00000AE1  0000              add [bx+si],al
00000AE3  0000              add [bx+si],al
00000AE5  0000              add [bx+si],al
00000AE7  0000              add [bx+si],al
00000AE9  0000              add [bx+si],al
00000AEB  0000              add [bx+si],al
00000AED  0000              add [bx+si],al
00000AEF  0000              add [bx+si],al
00000AF1  0000              add [bx+si],al
00000AF3  0000              add [bx+si],al
00000AF5  0000              add [bx+si],al
00000AF7  0000              add [bx+si],al
00000AF9  0000              add [bx+si],al
00000AFB  0000              add [bx+si],al
00000AFD  0000              add [bx+si],al
00000AFF  0000              add [bx+si],al
00000B01  0000              add [bx+si],al
00000B03  0000              add [bx+si],al
00000B05  0000              add [bx+si],al
00000B07  0000              add [bx+si],al
00000B09  0000              add [bx+si],al
00000B0B  0000              add [bx+si],al
00000B0D  0000              add [bx+si],al
00000B0F  0000              add [bx+si],al
00000B11  0000              add [bx+si],al
00000B13  0000              add [bx+si],al
00000B15  0000              add [bx+si],al
00000B17  0000              add [bx+si],al
00000B19  0000              add [bx+si],al
00000B1B  0000              add [bx+si],al
00000B1D  0000              add [bx+si],al
00000B1F  0000              add [bx+si],al
00000B21  0000              add [bx+si],al
00000B23  0000              add [bx+si],al
00000B25  0000              add [bx+si],al
00000B27  0000              add [bx+si],al
00000B29  0000              add [bx+si],al
00000B2B  0000              add [bx+si],al
00000B2D  0000              add [bx+si],al
00000B2F  0000              add [bx+si],al
00000B31  0000              add [bx+si],al
00000B33  0000              add [bx+si],al
00000B35  0000              add [bx+si],al
00000B37  0000              add [bx+si],al
00000B39  0000              add [bx+si],al
00000B3B  0000              add [bx+si],al
00000B3D  0000              add [bx+si],al
00000B3F  0000              add [bx+si],al
00000B41  0000              add [bx+si],al
00000B43  0000              add [bx+si],al
00000B45  0000              add [bx+si],al
00000B47  0000              add [bx+si],al
00000B49  0000              add [bx+si],al
00000B4B  0000              add [bx+si],al
00000B4D  0000              add [bx+si],al
00000B4F  0000              add [bx+si],al
00000B51  0000              add [bx+si],al
00000B53  0000              add [bx+si],al
00000B55  0000              add [bx+si],al
00000B57  0000              add [bx+si],al
00000B59  0000              add [bx+si],al
00000B5B  0000              add [bx+si],al
00000B5D  0000              add [bx+si],al
00000B5F  0000              add [bx+si],al
00000B61  0000              add [bx+si],al
00000B63  0000              add [bx+si],al
00000B65  0000              add [bx+si],al
00000B67  0000              add [bx+si],al
00000B69  0000              add [bx+si],al
00000B6B  0000              add [bx+si],al
00000B6D  0000              add [bx+si],al
00000B6F  0000              add [bx+si],al
00000B71  0000              add [bx+si],al
00000B73  0000              add [bx+si],al
00000B75  0000              add [bx+si],al
00000B77  0000              add [bx+si],al
00000B79  0000              add [bx+si],al
00000B7B  0000              add [bx+si],al
00000B7D  0000              add [bx+si],al
00000B7F  0000              add [bx+si],al
00000B81  0000              add [bx+si],al
00000B83  0000              add [bx+si],al
00000B85  0000              add [bx+si],al
00000B87  0000              add [bx+si],al
00000B89  0000              add [bx+si],al
00000B8B  0000              add [bx+si],al
00000B8D  0000              add [bx+si],al
00000B8F  0000              add [bx+si],al
00000B91  0000              add [bx+si],al
00000B93  0000              add [bx+si],al
00000B95  0000              add [bx+si],al
00000B97  0000              add [bx+si],al
00000B99  0000              add [bx+si],al
00000B9B  0000              add [bx+si],al
00000B9D  0000              add [bx+si],al
00000B9F  0000              add [bx+si],al
00000BA1  0000              add [bx+si],al
00000BA3  0000              add [bx+si],al
00000BA5  0000              add [bx+si],al
00000BA7  0000              add [bx+si],al
00000BA9  0000              add [bx+si],al
00000BAB  0000              add [bx+si],al
00000BAD  0000              add [bx+si],al
00000BAF  0000              add [bx+si],al
00000BB1  0000              add [bx+si],al
00000BB3  0000              add [bx+si],al
00000BB5  0000              add [bx+si],al
00000BB7  0000              add [bx+si],al
00000BB9  0000              add [bx+si],al
00000BBB  0000              add [bx+si],al
00000BBD  0000              add [bx+si],al
00000BBF  0000              add [bx+si],al
00000BC1  0000              add [bx+si],al
00000BC3  0000              add [bx+si],al
00000BC5  0000              add [bx+si],al
00000BC7  0000              add [bx+si],al
00000BC9  0000              add [bx+si],al
00000BCB  0000              add [bx+si],al
00000BCD  0000              add [bx+si],al
00000BCF  0000              add [bx+si],al
00000BD1  0000              add [bx+si],al
00000BD3  0000              add [bx+si],al
00000BD5  0000              add [bx+si],al
00000BD7  0000              add [bx+si],al
00000BD9  0000              add [bx+si],al
00000BDB  0000              add [bx+si],al
00000BDD  0000              add [bx+si],al
00000BDF  0000              add [bx+si],al
00000BE1  0000              add [bx+si],al
00000BE3  0000              add [bx+si],al
00000BE5  0000              add [bx+si],al
00000BE7  0000              add [bx+si],al
00000BE9  0000              add [bx+si],al
00000BEB  0000              add [bx+si],al
00000BED  0000              add [bx+si],al
00000BEF  0000              add [bx+si],al
00000BF1  0000              add [bx+si],al
00000BF3  0000              add [bx+si],al
00000BF5  0000              add [bx+si],al
00000BF7  0000              add [bx+si],al
00000BF9  0000              add [bx+si],al
00000BFB  0000              add [bx+si],al
00000BFD  0000              add [bx+si],al
00000BFF  0000              add [bx+si],al
00000C01  0000              add [bx+si],al
00000C03  0000              add [bx+si],al
00000C05  0000              add [bx+si],al
00000C07  0000              add [bx+si],al
00000C09  0000              add [bx+si],al
00000C0B  0000              add [bx+si],al
00000C0D  0000              add [bx+si],al
00000C0F  0000              add [bx+si],al
00000C11  0000              add [bx+si],al
00000C13  0000              add [bx+si],al
00000C15  0000              add [bx+si],al
00000C17  0000              add [bx+si],al
00000C19  0000              add [bx+si],al
00000C1B  0000              add [bx+si],al
00000C1D  0000              add [bx+si],al
00000C1F  0000              add [bx+si],al
00000C21  0000              add [bx+si],al
00000C23  0000              add [bx+si],al
00000C25  0000              add [bx+si],al
00000C27  0000              add [bx+si],al
00000C29  0000              add [bx+si],al
00000C2B  0000              add [bx+si],al
00000C2D  0000              add [bx+si],al
00000C2F  0000              add [bx+si],al
00000C31  0000              add [bx+si],al
00000C33  0000              add [bx+si],al
00000C35  0000              add [bx+si],al
00000C37  0000              add [bx+si],al
00000C39  0000              add [bx+si],al
00000C3B  0000              add [bx+si],al
00000C3D  0000              add [bx+si],al
00000C3F  0000              add [bx+si],al
00000C41  0000              add [bx+si],al
00000C43  0000              add [bx+si],al
00000C45  0000              add [bx+si],al
00000C47  0000              add [bx+si],al
00000C49  0000              add [bx+si],al
00000C4B  0000              add [bx+si],al
00000C4D  0000              add [bx+si],al
00000C4F  0000              add [bx+si],al
00000C51  0000              add [bx+si],al
00000C53  0000              add [bx+si],al
00000C55  0000              add [bx+si],al
00000C57  0000              add [bx+si],al
00000C59  0000              add [bx+si],al
00000C5B  0000              add [bx+si],al
00000C5D  0000              add [bx+si],al
00000C5F  0000              add [bx+si],al
00000C61  0000              add [bx+si],al
00000C63  0000              add [bx+si],al
00000C65  0000              add [bx+si],al
00000C67  0000              add [bx+si],al
00000C69  0000              add [bx+si],al
00000C6B  0000              add [bx+si],al
00000C6D  0000              add [bx+si],al
00000C6F  0000              add [bx+si],al
00000C71  0000              add [bx+si],al
00000C73  0000              add [bx+si],al
00000C75  0000              add [bx+si],al
00000C77  0000              add [bx+si],al
00000C79  0000              add [bx+si],al
00000C7B  0000              add [bx+si],al
00000C7D  0000              add [bx+si],al
00000C7F  0000              add [bx+si],al
00000C81  0000              add [bx+si],al
00000C83  0000              add [bx+si],al
00000C85  0000              add [bx+si],al
00000C87  0000              add [bx+si],al
00000C89  0000              add [bx+si],al
00000C8B  0000              add [bx+si],al
00000C8D  0000              add [bx+si],al
00000C8F  0000              add [bx+si],al
00000C91  0000              add [bx+si],al
00000C93  0000              add [bx+si],al
00000C95  0000              add [bx+si],al
00000C97  0000              add [bx+si],al
00000C99  0000              add [bx+si],al
00000C9B  0000              add [bx+si],al
00000C9D  0000              add [bx+si],al
00000C9F  0000              add [bx+si],al
00000CA1  0000              add [bx+si],al
00000CA3  0000              add [bx+si],al
00000CA5  0000              add [bx+si],al
00000CA7  0000              add [bx+si],al
00000CA9  0000              add [bx+si],al
00000CAB  0000              add [bx+si],al
00000CAD  0000              add [bx+si],al
00000CAF  0000              add [bx+si],al
00000CB1  0000              add [bx+si],al
00000CB3  0000              add [bx+si],al
00000CB5  0000              add [bx+si],al
00000CB7  0000              add [bx+si],al
00000CB9  0000              add [bx+si],al
00000CBB  0000              add [bx+si],al
00000CBD  0000              add [bx+si],al
00000CBF  0000              add [bx+si],al
00000CC1  0000              add [bx+si],al
00000CC3  0000              add [bx+si],al
00000CC5  0000              add [bx+si],al
00000CC7  0000              add [bx+si],al
00000CC9  0000              add [bx+si],al
00000CCB  0000              add [bx+si],al
00000CCD  0000              add [bx+si],al
00000CCF  0000              add [bx+si],al
00000CD1  0000              add [bx+si],al
00000CD3  0000              add [bx+si],al
00000CD5  0000              add [bx+si],al
00000CD7  0000              add [bx+si],al
00000CD9  0000              add [bx+si],al
00000CDB  0000              add [bx+si],al
00000CDD  0000              add [bx+si],al
00000CDF  0000              add [bx+si],al
00000CE1  0000              add [bx+si],al
00000CE3  0000              add [bx+si],al
00000CE5  0000              add [bx+si],al
00000CE7  0000              add [bx+si],al
00000CE9  0000              add [bx+si],al
00000CEB  0000              add [bx+si],al
00000CED  0000              add [bx+si],al
00000CEF  0000              add [bx+si],al
00000CF1  0000              add [bx+si],al
00000CF3  0000              add [bx+si],al
00000CF5  0000              add [bx+si],al
00000CF7  0000              add [bx+si],al
00000CF9  0000              add [bx+si],al
00000CFB  0000              add [bx+si],al
00000CFD  0000              add [bx+si],al
00000CFF  0000              add [bx+si],al
00000D01  0000              add [bx+si],al
00000D03  0000              add [bx+si],al
00000D05  0000              add [bx+si],al
00000D07  0000              add [bx+si],al
00000D09  0000              add [bx+si],al
00000D0B  0000              add [bx+si],al
00000D0D  0000              add [bx+si],al
00000D0F  0000              add [bx+si],al
00000D11  0000              add [bx+si],al
00000D13  0000              add [bx+si],al
00000D15  0000              add [bx+si],al
00000D17  0000              add [bx+si],al
00000D19  0000              add [bx+si],al
00000D1B  0000              add [bx+si],al
00000D1D  0000              add [bx+si],al
00000D1F  0000              add [bx+si],al
00000D21  0000              add [bx+si],al
00000D23  0000              add [bx+si],al
00000D25  0000              add [bx+si],al
00000D27  0000              add [bx+si],al
00000D29  0000              add [bx+si],al
00000D2B  0000              add [bx+si],al
00000D2D  0000              add [bx+si],al
00000D2F  0000              add [bx+si],al
00000D31  0000              add [bx+si],al
00000D33  0000              add [bx+si],al
00000D35  0000              add [bx+si],al
00000D37  0000              add [bx+si],al
00000D39  0000              add [bx+si],al
00000D3B  0000              add [bx+si],al
00000D3D  0000              add [bx+si],al
00000D3F  0000              add [bx+si],al
00000D41  0000              add [bx+si],al
00000D43  0000              add [bx+si],al
00000D45  0000              add [bx+si],al
00000D47  0000              add [bx+si],al
00000D49  0000              add [bx+si],al
00000D4B  0000              add [bx+si],al
00000D4D  0000              add [bx+si],al
00000D4F  0000              add [bx+si],al
00000D51  0000              add [bx+si],al
00000D53  0000              add [bx+si],al
00000D55  0000              add [bx+si],al
00000D57  0000              add [bx+si],al
00000D59  0000              add [bx+si],al
00000D5B  0000              add [bx+si],al
00000D5D  0000              add [bx+si],al
00000D5F  0000              add [bx+si],al
00000D61  0000              add [bx+si],al
00000D63  0000              add [bx+si],al
00000D65  0000              add [bx+si],al
00000D67  0000              add [bx+si],al
00000D69  0000              add [bx+si],al
00000D6B  0000              add [bx+si],al
00000D6D  0000              add [bx+si],al
00000D6F  0000              add [bx+si],al
00000D71  0000              add [bx+si],al
00000D73  0000              add [bx+si],al
00000D75  0000              add [bx+si],al
00000D77  0000              add [bx+si],al
00000D79  0000              add [bx+si],al
00000D7B  0000              add [bx+si],al
00000D7D  0000              add [bx+si],al
00000D7F  0000              add [bx+si],al
00000D81  0000              add [bx+si],al
00000D83  0000              add [bx+si],al
00000D85  0000              add [bx+si],al
00000D87  0000              add [bx+si],al
00000D89  0000              add [bx+si],al
00000D8B  0000              add [bx+si],al
00000D8D  0000              add [bx+si],al
00000D8F  005548            add [di+0x48],dl
00000D92  89E5              mov bp,sp
00000D94  48                dec ax
00000D95  83EC60            sub sp,byte +0x60
00000D98  48                dec ax
00000D99  8D05              lea ax,[di]
00000D9B  F30100            rep add [bx+si],ax
00000D9E  00C7              add bh,al
00000DA0  45                inc bp
00000DA1  FC                cld
00000DA2  0000              add [bx+si],al
00000DA4  0000              add [bx+si],al
00000DA6  897DF8            mov [di-0x8],di
00000DA9  48                dec ax
00000DAA  8975F0            mov [di-0x10],si
00000DAD  8B3D              mov di,[di]
00000DAF  D301              rol word [bx+di],cl
00000DB1  0000              add [bx+si],al
00000DB3  897DEA            mov [di-0x16],di
00000DB6  668B0D            mov ecx,[di]
00000DB9  CD01              int 0x1
00000DBB  0000              add [bx+si],al
00000DBD  66894DEE          mov [di-0x12],ecx
00000DC1  8B3D              mov di,[di]
00000DC3  C501              lds ax,[bx+di]
00000DC5  0000              add [bx+si],al
00000DC7  897DE4            mov [di-0x1c],di
00000DCA  668B0D            mov ecx,[di]
00000DCD  BF0100            mov di,0x1
00000DD0  006689            add [bp-0x77],ah
00000DD3  4D                dec bp
00000DD4  E84889            call word 0x971f
00000DD7  C7                db 0xc7
00000DD8  B000              mov al,0x0
00000DDA  E86D01            call word 0xf4a
00000DDD  0000              add [bx+si],al
00000DDF  48                dec ax
00000DE0  8D3D              lea di,[di]
00000DE2  B701              mov bh,0x1
00000DE4  0000              add [bx+si],al
00000DE6  48                dec ax
00000DE7  8D75DE            lea si,[di-0x22]
00000DEA  8945AC            mov [di-0x54],ax
00000DED  B000              mov al,0x0
00000DEF  E85E01            call word 0xf50
00000DF2  0000              add [bx+si],al
00000DF4  8B55DE            mov dx,[di-0x22]
00000DF7  8955D8            mov [di-0x28],dx
00000DFA  668B4DE2          mov ecx,[di-0x1e]
00000DFE  66894DDC          mov [di-0x24],ecx
00000E02  8945A8            mov [di-0x58],ax
00000E05  48                dec ax
00000E06  8D45EA            lea ax,[di-0x16]
00000E09  48                dec ax
00000E0A  8945D0            mov [di-0x30],ax
00000E0D  48                dec ax
00000E0E  8B45D0            mov ax,[di-0x30]
00000E11  803800            cmp byte [bx+si],0x0
00000E14  0F842000          jz word 0xe38
00000E18  0000              add [bx+si],al
00000E1A  48                dec ax
00000E1B  8B45D0            mov ax,[di-0x30]
00000E1E  48                dec ax
00000E1F  89C1              mov cx,ax
00000E21  48                dec ax
00000E22  83C101            add cx,byte +0x1
00000E25  48                dec ax
00000E26  894DD0            mov [di-0x30],cx
00000E29  0FBE10            movsx dx,[bx+si]
00000E2C  83EA50            sub dx,byte +0x50
00000E2F  40                inc ax
00000E30  88D6              mov dh,dl
00000E32  40                inc ax
00000E33  8830              mov [bx+si],dh
00000E35  E9D3FF            jmp word 0xe0b
00000E38  FF                db 0xff
00000E39  FF                db 0xff
00000E3A  E90000            jmp word 0xe3d
00000E3D  0000              add [bx+si],al
00000E3F  48                dec ax
00000E40  8D75EA            lea si,[di-0x16]
00000E43  48                dec ax
00000E44  8D7DD8            lea di,[di-0x28]
00000E47  B80500            mov ax,0x5
00000E4A  0000              add [bx+si],al
00000E4C  89C2              mov dx,ax
00000E4E  E8F300            call word 0xf44
00000E51  0000              add [bx+si],al
00000E53  8945CC            mov [di-0x34],ax
00000E56  48                dec ax
00000E57  8D45EA            lea ax,[di-0x16]
00000E5A  48                dec ax
00000E5B  8945C0            mov [di-0x40],ax
00000E5E  48                dec ax
00000E5F  8B45C0            mov ax,[di-0x40]
00000E62  803800            cmp byte [bx+si],0x0
00000E65  0F842000          jz word 0xe89
00000E69  0000              add [bx+si],al
00000E6B  48                dec ax
00000E6C  8B45C0            mov ax,[di-0x40]
00000E6F  48                dec ax
00000E70  89C1              mov cx,ax
00000E72  48                dec ax
00000E73  83C101            add cx,byte +0x1
00000E76  48                dec ax
00000E77  894DC0            mov [di-0x40],cx
00000E7A  0FBE10            movsx dx,[bx+si]
00000E7D  83C250            add dx,byte +0x50
00000E80  40                inc ax
00000E81  88D6              mov dh,dl
00000E83  40                inc ax
00000E84  8830              mov [bx+si],dh
00000E86  E9D3FF            jmp word 0xe5c
00000E89  FF                db 0xff
00000E8A  FF                db 0xff
00000E8B  E90000            jmp word 0xe8e
00000E8E  0000              add [bx+si],al
00000E90  837DCC00          cmp word [di-0x34],byte +0x0
00000E94  0F859300          jnz word 0xf2b
00000E98  0000              add [bx+si],al
00000E9A  E90000            jmp word 0xe9d
00000E9D  0000              add [bx+si],al
00000E9F  48                dec ax
00000EA0  8D45E4            lea ax,[di-0x1c]
00000EA3  48                dec ax
00000EA4  8945B8            mov [di-0x48],ax
00000EA7  48                dec ax
00000EA8  8B45B8            mov ax,[di-0x48]
00000EAB  803800            cmp byte [bx+si],0x0
00000EAE  0F842000          jz word 0xed2
00000EB2  0000              add [bx+si],al
00000EB4  48                dec ax
00000EB5  8B45B8            mov ax,[di-0x48]
00000EB8  48                dec ax
00000EB9  89C1              mov cx,ax
00000EBB  48                dec ax
00000EBC  83C101            add cx,byte +0x1
00000EBF  48                dec ax
00000EC0  894DB8            mov [di-0x48],cx
00000EC3  0FBE10            movsx dx,[bx+si]
00000EC6  83EA50            sub dx,byte +0x50
00000EC9  40                inc ax
00000ECA  88D6              mov dh,dl
00000ECC  40                inc ax
00000ECD  8830              mov [bx+si],dh
00000ECF  E9D3FF            jmp word 0xea5
00000ED2  FF                db 0xff
00000ED3  FF                db 0xff
00000ED4  E90000            jmp word 0xed7
00000ED7  0000              add [bx+si],al
00000ED9  48                dec ax
00000EDA  8D3D              lea di,[di]
00000EDC  C00000            rol byte [bx+si],byte 0x0
00000EDF  00488D            add [bx+si-0x73],cl
00000EE2  75E4              jnz 0xec8
00000EE4  B000              mov al,0x0
00000EE6  E86100            call word 0xf4a
00000EE9  0000              add [bx+si],al
00000EEB  8945A4            mov [di-0x5c],ax
00000EEE  48                dec ax
00000EEF  8D45E4            lea ax,[di-0x1c]
00000EF2  48                dec ax
00000EF3  8945B0            mov [di-0x50],ax
00000EF6  48                dec ax
00000EF7  8B45B0            mov ax,[di-0x50]
00000EFA  803800            cmp byte [bx+si],0x0
00000EFD  0F842000          jz word 0xf21
00000F01  0000              add [bx+si],al
00000F03  48                dec ax
00000F04  8B45B0            mov ax,[di-0x50]
00000F07  48                dec ax
00000F08  89C1              mov cx,ax
00000F0A  48                dec ax
00000F0B  83C101            add cx,byte +0x1
00000F0E  48                dec ax
00000F0F  894DB0            mov [di-0x50],cx
00000F12  0FBE10            movsx dx,[bx+si]
00000F15  83C250            add dx,byte +0x50
00000F18  40                inc ax
00000F19  88D6              mov dh,dl
00000F1B  40                inc ax
00000F1C  8830              mov [bx+si],dh
00000F1E  E9D3FF            jmp word 0xef4
00000F21  FF                db 0xff
00000F22  FF                db 0xff
00000F23  E90000            jmp word 0xf26
00000F26  0000              add [bx+si],al
00000F28  E91100            jmp word 0xf3c
00000F2B  0000              add [bx+si],al
00000F2D  48                dec ax
00000F2E  8D3D              lea di,[di]
00000F30  7000              jo 0xf32
00000F32  0000              add [bx+si],al
00000F34  B000              mov al,0x0
00000F36  E81100            call word 0xf4a
00000F39  0000              add [bx+si],al
00000F3B  8945A0            mov [di-0x60],ax
00000F3E  31C0              xor ax,ax
00000F40  48                dec ax
00000F41  83C460            add sp,byte +0x60
00000F44  5D                pop bp
00000F45  C3                ret
00000F46  FF25              jmp word [di]
00000F48  C400              les ax,[bx+si]
00000F4A  0000              add [bx+si],al
00000F4C  FF25              jmp word [di]
00000F4E  C60000            mov byte [bx+si],0x0
00000F51  00FF              add bh,bh
00000F53  25C800            and ax,0xc8
00000F56  0000              add [bx+si],al
00000F58  4C                dec sp
00000F59  8D1D              lea bx,[di]
00000F5B  A90000            test ax,0x0
00000F5E  004153            add [bx+di+0x53],al
00000F61  FF25              jmp word [di]
00000F63  99                cwd
00000F64  0000              add [bx+si],al
00000F66  00906800          add [bx+si+0x68],dl
00000F6A  0000              add [bx+si],al
00000F6C  00E9              add cl,ch
00000F6E  E6FF              out 0xff,al
00000F70  FF                db 0xff
00000F71  FF680E            jmp word far [bx+si+0xe]
00000F74  0000              add [bx+si],al
00000F76  00E9              add cl,ch
00000F78  DCFF              fdiv to st7
00000F7A  FF                db 0xff
00000F7B  FF681C            jmp word far [bx+si+0x1c]
00000F7E  0000              add [bx+si],al
00000F80  00E9              add cl,ch
00000F82  D2FF              sar bh,cl
00000F84  FF                db 0xff
00000F85  FFB5BCB9          push word [di-0x4644]
00000F89  C4B500B6          les si,[di-0x4a00]
00000F8D  BCB1B7            mov sp,0xb7b1
00000F90  7100              jno 0xf92
00000F92  50                push ax
00000F93  61                popaw
00000F94  7373              jnc 0x1009
00000F96  776F              ja 0x1007
00000F98  7264              jc 0xffe
00000F9A  3F                aas
00000F9B  0A00              or al,[bx+si]
00000F9D  257300            and ax,0x73
00000FA0  25730A            and ax,0xa73
00000FA3  004F4F            add [bx+0x4f],cl
00000FA6  50                push ax
00000FA7  53                push bx
00000FA8  0A00              or al,[bx+si]
00000FAA  0000              add [bx+si],al
00000FAC  0100              add [bx+si],ax
00000FAE  0000              add [bx+si],al
00000FB0  1C00              sbb al,0x0
00000FB2  0000              add [bx+si],al
00000FB4  0000              add [bx+si],al
00000FB6  0000              add [bx+si],al
00000FB8  1C00              sbb al,0x0
00000FBA  0000              add [bx+si],al
00000FBC  0000              add [bx+si],al
00000FBE  0000              add [bx+si],al
00000FC0  1C00              sbb al,0x0
00000FC2  0000              add [bx+si],al
00000FC4  0200              add al,[bx+si]
00000FC6  0000              add [bx+si],al
00000FC8  90                nop
00000FC9  0D0000            or ax,0x0
00000FCC  3400              xor al,0x0
00000FCE  0000              add [bx+si],al
00000FD0  3400              xor al,0x0
00000FD2  0000              add [bx+si],al
00000FD4  47                inc di
00000FD5  0F0000            sldt [bx+si]
00000FD8  0000              add [bx+si],al
00000FDA  0000              add [bx+si],al
00000FDC  3400              xor al,0x0
00000FDE  0000              add [bx+si],al
00000FE0  0300              add ax,[bx+si]
00000FE2  0000              add [bx+si],al
00000FE4  0C00              or al,0x0
00000FE6  0100              add [bx+si],ax
00000FE8  1000              adc [bx+si],al
00000FEA  0100              add [bx+si],ax
00000FEC  0000              add [bx+si],al
00000FEE  0000              add [bx+si],al
00000FF0  0000              add [bx+si],al
00000FF2  0001              add [bx+di],al
00000FF4  0000              add [bx+si],al
00000FF6  0000              add [bx+si],al
00000FF8  0000              add [bx+si],al
00000FFA  0000              add [bx+si],al
00000FFC  0000              add [bx+si],al
00000FFE  0000              add [bx+si],al
00001000  0000              add [bx+si],al
00001002  0000              add [bx+si],al
00001004  0000              add [bx+si],al
00001006  0000              add [bx+si],al
00001008  0000              add [bx+si],al
0000100A  0000              add [bx+si],al
0000100C  0000              add [bx+si],al
0000100E  0000              add [bx+si],al
00001010  680F00            push word 0xf
00001013  0001              add [bx+di],al
00001015  0000              add [bx+si],al
00001017  00720F            add [bp+si+0xf],dh
0000101A  0000              add [bx+si],al
0000101C  0100              add [bx+si],ax
0000101E  0000              add [bx+si],al
00001020  7C0F              jl 0x1031
00001022  0000              add [bx+si],al
00001024  0100              add [bx+si],ax
00001026  0000              add [bx+si],al
00001028  0000              add [bx+si],al
0000102A  0000              add [bx+si],al
0000102C  0000              add [bx+si],al
0000102E  0000              add [bx+si],al
00001030  0000              add [bx+si],al
00001032  0000              add [bx+si],al
00001034  0000              add [bx+si],al
00001036  0000              add [bx+si],al
00001038  0000              add [bx+si],al
0000103A  0000              add [bx+si],al
0000103C  0000              add [bx+si],al
0000103E  0000              add [bx+si],al
00001040  0000              add [bx+si],al
00001042  0000              add [bx+si],al
00001044  0000              add [bx+si],al
00001046  0000              add [bx+si],al
00001048  0000              add [bx+si],al
0000104A  0000              add [bx+si],al
0000104C  0000              add [bx+si],al
0000104E  0000              add [bx+si],al
00001050  0000              add [bx+si],al
00001052  0000              add [bx+si],al
00001054  0000              add [bx+si],al
00001056  0000              add [bx+si],al
00001058  0000              add [bx+si],al
0000105A  0000              add [bx+si],al
0000105C  0000              add [bx+si],al
0000105E  0000              add [bx+si],al
00001060  0000              add [bx+si],al
00001062  0000              add [bx+si],al
00001064  0000              add [bx+si],al
00001066  0000              add [bx+si],al
00001068  0000              add [bx+si],al
0000106A  0000              add [bx+si],al
0000106C  0000              add [bx+si],al
0000106E  0000              add [bx+si],al
00001070  0000              add [bx+si],al
00001072  0000              add [bx+si],al
00001074  0000              add [bx+si],al
00001076  0000              add [bx+si],al
00001078  0000              add [bx+si],al
0000107A  0000              add [bx+si],al
0000107C  0000              add [bx+si],al
0000107E  0000              add [bx+si],al
00001080  0000              add [bx+si],al
00001082  0000              add [bx+si],al
00001084  0000              add [bx+si],al
00001086  0000              add [bx+si],al
00001088  0000              add [bx+si],al
0000108A  0000              add [bx+si],al
0000108C  0000              add [bx+si],al
0000108E  0000              add [bx+si],al
00001090  0000              add [bx+si],al
00001092  0000              add [bx+si],al
00001094  0000              add [bx+si],al
00001096  0000              add [bx+si],al
00001098  0000              add [bx+si],al
0000109A  0000              add [bx+si],al
0000109C  0000              add [bx+si],al
0000109E  0000              add [bx+si],al
000010A0  0000              add [bx+si],al
000010A2  0000              add [bx+si],al
000010A4  0000              add [bx+si],al
000010A6  0000              add [bx+si],al
000010A8  0000              add [bx+si],al
000010AA  0000              add [bx+si],al
000010AC  0000              add [bx+si],al
000010AE  0000              add [bx+si],al
000010B0  0000              add [bx+si],al
000010B2  0000              add [bx+si],al
000010B4  0000              add [bx+si],al
000010B6  0000              add [bx+si],al
000010B8  0000              add [bx+si],al
000010BA  0000              add [bx+si],al
000010BC  0000              add [bx+si],al
000010BE  0000              add [bx+si],al
000010C0  0000              add [bx+si],al
000010C2  0000              add [bx+si],al
000010C4  0000              add [bx+si],al
000010C6  0000              add [bx+si],al
000010C8  0000              add [bx+si],al
000010CA  0000              add [bx+si],al
000010CC  0000              add [bx+si],al
000010CE  0000              add [bx+si],al
000010D0  0000              add [bx+si],al
000010D2  0000              add [bx+si],al
000010D4  0000              add [bx+si],al
000010D6  0000              add [bx+si],al
000010D8  0000              add [bx+si],al
000010DA  0000              add [bx+si],al
000010DC  0000              add [bx+si],al
000010DE  0000              add [bx+si],al
000010E0  0000              add [bx+si],al
000010E2  0000              add [bx+si],al
000010E4  0000              add [bx+si],al
000010E6  0000              add [bx+si],al
000010E8  0000              add [bx+si],al
000010EA  0000              add [bx+si],al
000010EC  0000              add [bx+si],al
000010EE  0000              add [bx+si],al
000010F0  0000              add [bx+si],al
000010F2  0000              add [bx+si],al
000010F4  0000              add [bx+si],al
000010F6  0000              add [bx+si],al
000010F8  0000              add [bx+si],al
000010FA  0000              add [bx+si],al
000010FC  0000              add [bx+si],al
000010FE  0000              add [bx+si],al
00001100  0000              add [bx+si],al
00001102  0000              add [bx+si],al
00001104  0000              add [bx+si],al
00001106  0000              add [bx+si],al
00001108  0000              add [bx+si],al
0000110A  0000              add [bx+si],al
0000110C  0000              add [bx+si],al
0000110E  0000              add [bx+si],al
00001110  0000              add [bx+si],al
00001112  0000              add [bx+si],al
00001114  0000              add [bx+si],al
00001116  0000              add [bx+si],al
00001118  0000              add [bx+si],al
0000111A  0000              add [bx+si],al
0000111C  0000              add [bx+si],al
0000111E  0000              add [bx+si],al
00001120  0000              add [bx+si],al
00001122  0000              add [bx+si],al
00001124  0000              add [bx+si],al
00001126  0000              add [bx+si],al
00001128  0000              add [bx+si],al
0000112A  0000              add [bx+si],al
0000112C  0000              add [bx+si],al
0000112E  0000              add [bx+si],al
00001130  0000              add [bx+si],al
00001132  0000              add [bx+si],al
00001134  0000              add [bx+si],al
00001136  0000              add [bx+si],al
00001138  0000              add [bx+si],al
0000113A  0000              add [bx+si],al
0000113C  0000              add [bx+si],al
0000113E  0000              add [bx+si],al
00001140  0000              add [bx+si],al
00001142  0000              add [bx+si],al
00001144  0000              add [bx+si],al
00001146  0000              add [bx+si],al
00001148  0000              add [bx+si],al
0000114A  0000              add [bx+si],al
0000114C  0000              add [bx+si],al
0000114E  0000              add [bx+si],al
00001150  0000              add [bx+si],al
00001152  0000              add [bx+si],al
00001154  0000              add [bx+si],al
00001156  0000              add [bx+si],al
00001158  0000              add [bx+si],al
0000115A  0000              add [bx+si],al
0000115C  0000              add [bx+si],al
0000115E  0000              add [bx+si],al
00001160  0000              add [bx+si],al
00001162  0000              add [bx+si],al
00001164  0000              add [bx+si],al
00001166  0000              add [bx+si],al
00001168  0000              add [bx+si],al
0000116A  0000              add [bx+si],al
0000116C  0000              add [bx+si],al
0000116E  0000              add [bx+si],al
00001170  0000              add [bx+si],al
00001172  0000              add [bx+si],al
00001174  0000              add [bx+si],al
00001176  0000              add [bx+si],al
00001178  0000              add [bx+si],al
0000117A  0000              add [bx+si],al
0000117C  0000              add [bx+si],al
0000117E  0000              add [bx+si],al
00001180  0000              add [bx+si],al
00001182  0000              add [bx+si],al
00001184  0000              add [bx+si],al
00001186  0000              add [bx+si],al
00001188  0000              add [bx+si],al
0000118A  0000              add [bx+si],al
0000118C  0000              add [bx+si],al
0000118E  0000              add [bx+si],al
00001190  0000              add [bx+si],al
00001192  0000              add [bx+si],al
00001194  0000              add [bx+si],al
00001196  0000              add [bx+si],al
00001198  0000              add [bx+si],al
0000119A  0000              add [bx+si],al
0000119C  0000              add [bx+si],al
0000119E  0000              add [bx+si],al
000011A0  0000              add [bx+si],al
000011A2  0000              add [bx+si],al
000011A4  0000              add [bx+si],al
000011A6  0000              add [bx+si],al
000011A8  0000              add [bx+si],al
000011AA  0000              add [bx+si],al
000011AC  0000              add [bx+si],al
000011AE  0000              add [bx+si],al
000011B0  0000              add [bx+si],al
000011B2  0000              add [bx+si],al
000011B4  0000              add [bx+si],al
000011B6  0000              add [bx+si],al
000011B8  0000              add [bx+si],al
000011BA  0000              add [bx+si],al
000011BC  0000              add [bx+si],al
000011BE  0000              add [bx+si],al
000011C0  0000              add [bx+si],al
000011C2  0000              add [bx+si],al
000011C4  0000              add [bx+si],al
000011C6  0000              add [bx+si],al
000011C8  0000              add [bx+si],al
000011CA  0000              add [bx+si],al
000011CC  0000              add [bx+si],al
000011CE  0000              add [bx+si],al
000011D0  0000              add [bx+si],al
000011D2  0000              add [bx+si],al
000011D4  0000              add [bx+si],al
000011D6  0000              add [bx+si],al
000011D8  0000              add [bx+si],al
000011DA  0000              add [bx+si],al
000011DC  0000              add [bx+si],al
000011DE  0000              add [bx+si],al
000011E0  0000              add [bx+si],al
000011E2  0000              add [bx+si],al
000011E4  0000              add [bx+si],al
000011E6  0000              add [bx+si],al
000011E8  0000              add [bx+si],al
000011EA  0000              add [bx+si],al
000011EC  0000              add [bx+si],al
000011EE  0000              add [bx+si],al
000011F0  0000              add [bx+si],al
000011F2  0000              add [bx+si],al
000011F4  0000              add [bx+si],al
000011F6  0000              add [bx+si],al
000011F8  0000              add [bx+si],al
000011FA  0000              add [bx+si],al
000011FC  0000              add [bx+si],al
000011FE  0000              add [bx+si],al
00001200  0000              add [bx+si],al
00001202  0000              add [bx+si],al
00001204  0000              add [bx+si],al
00001206  0000              add [bx+si],al
00001208  0000              add [bx+si],al
0000120A  0000              add [bx+si],al
0000120C  0000              add [bx+si],al
0000120E  0000              add [bx+si],al
00001210  0000              add [bx+si],al
00001212  0000              add [bx+si],al
00001214  0000              add [bx+si],al
00001216  0000              add [bx+si],al
00001218  0000              add [bx+si],al
0000121A  0000              add [bx+si],al
0000121C  0000              add [bx+si],al
0000121E  0000              add [bx+si],al
00001220  0000              add [bx+si],al
00001222  0000              add [bx+si],al
00001224  0000              add [bx+si],al
00001226  0000              add [bx+si],al
00001228  0000              add [bx+si],al
0000122A  0000              add [bx+si],al
0000122C  0000              add [bx+si],al
0000122E  0000              add [bx+si],al
00001230  0000              add [bx+si],al
00001232  0000              add [bx+si],al
00001234  0000              add [bx+si],al
00001236  0000              add [bx+si],al
00001238  0000              add [bx+si],al
0000123A  0000              add [bx+si],al
0000123C  0000              add [bx+si],al
0000123E  0000              add [bx+si],al
00001240  0000              add [bx+si],al
00001242  0000              add [bx+si],al
00001244  0000              add [bx+si],al
00001246  0000              add [bx+si],al
00001248  0000              add [bx+si],al
0000124A  0000              add [bx+si],al
0000124C  0000              add [bx+si],al
0000124E  0000              add [bx+si],al
00001250  0000              add [bx+si],al
00001252  0000              add [bx+si],al
00001254  0000              add [bx+si],al
00001256  0000              add [bx+si],al
00001258  0000              add [bx+si],al
0000125A  0000              add [bx+si],al
0000125C  0000              add [bx+si],al
0000125E  0000              add [bx+si],al
00001260  0000              add [bx+si],al
00001262  0000              add [bx+si],al
00001264  0000              add [bx+si],al
00001266  0000              add [bx+si],al
00001268  0000              add [bx+si],al
0000126A  0000              add [bx+si],al
0000126C  0000              add [bx+si],al
0000126E  0000              add [bx+si],al
00001270  0000              add [bx+si],al
00001272  0000              add [bx+si],al
00001274  0000              add [bx+si],al
00001276  0000              add [bx+si],al
00001278  0000              add [bx+si],al
0000127A  0000              add [bx+si],al
0000127C  0000              add [bx+si],al
0000127E  0000              add [bx+si],al
00001280  0000              add [bx+si],al
00001282  0000              add [bx+si],al
00001284  0000              add [bx+si],al
00001286  0000              add [bx+si],al
00001288  0000              add [bx+si],al
0000128A  0000              add [bx+si],al
0000128C  0000              add [bx+si],al
0000128E  0000              add [bx+si],al
00001290  0000              add [bx+si],al
00001292  0000              add [bx+si],al
00001294  0000              add [bx+si],al
00001296  0000              add [bx+si],al
00001298  0000              add [bx+si],al
0000129A  0000              add [bx+si],al
0000129C  0000              add [bx+si],al
0000129E  0000              add [bx+si],al
000012A0  0000              add [bx+si],al
000012A2  0000              add [bx+si],al
000012A4  0000              add [bx+si],al
000012A6  0000              add [bx+si],al
000012A8  0000              add [bx+si],al
000012AA  0000              add [bx+si],al
000012AC  0000              add [bx+si],al
000012AE  0000              add [bx+si],al
000012B0  0000              add [bx+si],al
000012B2  0000              add [bx+si],al
000012B4  0000              add [bx+si],al
000012B6  0000              add [bx+si],al
000012B8  0000              add [bx+si],al
000012BA  0000              add [bx+si],al
000012BC  0000              add [bx+si],al
000012BE  0000              add [bx+si],al
000012C0  0000              add [bx+si],al
000012C2  0000              add [bx+si],al
000012C4  0000              add [bx+si],al
000012C6  0000              add [bx+si],al
000012C8  0000              add [bx+si],al
000012CA  0000              add [bx+si],al
000012CC  0000              add [bx+si],al
000012CE  0000              add [bx+si],al
000012D0  0000              add [bx+si],al
000012D2  0000              add [bx+si],al
000012D4  0000              add [bx+si],al
000012D6  0000              add [bx+si],al
000012D8  0000              add [bx+si],al
000012DA  0000              add [bx+si],al
000012DC  0000              add [bx+si],al
000012DE  0000              add [bx+si],al
000012E0  0000              add [bx+si],al
000012E2  0000              add [bx+si],al
000012E4  0000              add [bx+si],al
000012E6  0000              add [bx+si],al
000012E8  0000              add [bx+si],al
000012EA  0000              add [bx+si],al
000012EC  0000              add [bx+si],al
000012EE  0000              add [bx+si],al
000012F0  0000              add [bx+si],al
000012F2  0000              add [bx+si],al
000012F4  0000              add [bx+si],al
000012F6  0000              add [bx+si],al
000012F8  0000              add [bx+si],al
000012FA  0000              add [bx+si],al
000012FC  0000              add [bx+si],al
000012FE  0000              add [bx+si],al
00001300  0000              add [bx+si],al
00001302  0000              add [bx+si],al
00001304  0000              add [bx+si],al
00001306  0000              add [bx+si],al
00001308  0000              add [bx+si],al
0000130A  0000              add [bx+si],al
0000130C  0000              add [bx+si],al
0000130E  0000              add [bx+si],al
00001310  0000              add [bx+si],al
00001312  0000              add [bx+si],al
00001314  0000              add [bx+si],al
00001316  0000              add [bx+si],al
00001318  0000              add [bx+si],al
0000131A  0000              add [bx+si],al
0000131C  0000              add [bx+si],al
0000131E  0000              add [bx+si],al
00001320  0000              add [bx+si],al
00001322  0000              add [bx+si],al
00001324  0000              add [bx+si],al
00001326  0000              add [bx+si],al
00001328  0000              add [bx+si],al
0000132A  0000              add [bx+si],al
0000132C  0000              add [bx+si],al
0000132E  0000              add [bx+si],al
00001330  0000              add [bx+si],al
00001332  0000              add [bx+si],al
00001334  0000              add [bx+si],al
00001336  0000              add [bx+si],al
00001338  0000              add [bx+si],al
0000133A  0000              add [bx+si],al
0000133C  0000              add [bx+si],al
0000133E  0000              add [bx+si],al
00001340  0000              add [bx+si],al
00001342  0000              add [bx+si],al
00001344  0000              add [bx+si],al
00001346  0000              add [bx+si],al
00001348  0000              add [bx+si],al
0000134A  0000              add [bx+si],al
0000134C  0000              add [bx+si],al
0000134E  0000              add [bx+si],al
00001350  0000              add [bx+si],al
00001352  0000              add [bx+si],al
00001354  0000              add [bx+si],al
00001356  0000              add [bx+si],al
00001358  0000              add [bx+si],al
0000135A  0000              add [bx+si],al
0000135C  0000              add [bx+si],al
0000135E  0000              add [bx+si],al
00001360  0000              add [bx+si],al
00001362  0000              add [bx+si],al
00001364  0000              add [bx+si],al
00001366  0000              add [bx+si],al
00001368  0000              add [bx+si],al
0000136A  0000              add [bx+si],al
0000136C  0000              add [bx+si],al
0000136E  0000              add [bx+si],al
00001370  0000              add [bx+si],al
00001372  0000              add [bx+si],al
00001374  0000              add [bx+si],al
00001376  0000              add [bx+si],al
00001378  0000              add [bx+si],al
0000137A  0000              add [bx+si],al
0000137C  0000              add [bx+si],al
0000137E  0000              add [bx+si],al
00001380  0000              add [bx+si],al
00001382  0000              add [bx+si],al
00001384  0000              add [bx+si],al
00001386  0000              add [bx+si],al
00001388  0000              add [bx+si],al
0000138A  0000              add [bx+si],al
0000138C  0000              add [bx+si],al
0000138E  0000              add [bx+si],al
00001390  0000              add [bx+si],al
00001392  0000              add [bx+si],al
00001394  0000              add [bx+si],al
00001396  0000              add [bx+si],al
00001398  0000              add [bx+si],al
0000139A  0000              add [bx+si],al
0000139C  0000              add [bx+si],al
0000139E  0000              add [bx+si],al
000013A0  0000              add [bx+si],al
000013A2  0000              add [bx+si],al
000013A4  0000              add [bx+si],al
000013A6  0000              add [bx+si],al
000013A8  0000              add [bx+si],al
000013AA  0000              add [bx+si],al
000013AC  0000              add [bx+si],al
000013AE  0000              add [bx+si],al
000013B0  0000              add [bx+si],al
000013B2  0000              add [bx+si],al
000013B4  0000              add [bx+si],al
000013B6  0000              add [bx+si],al
000013B8  0000              add [bx+si],al
000013BA  0000              add [bx+si],al
000013BC  0000              add [bx+si],al
000013BE  0000              add [bx+si],al
000013C0  0000              add [bx+si],al
000013C2  0000              add [bx+si],al
000013C4  0000              add [bx+si],al
000013C6  0000              add [bx+si],al
000013C8  0000              add [bx+si],al
000013CA  0000              add [bx+si],al
000013CC  0000              add [bx+si],al
000013CE  0000              add [bx+si],al
000013D0  0000              add [bx+si],al
000013D2  0000              add [bx+si],al
000013D4  0000              add [bx+si],al
000013D6  0000              add [bx+si],al
000013D8  0000              add [bx+si],al
000013DA  0000              add [bx+si],al
000013DC  0000              add [bx+si],al
000013DE  0000              add [bx+si],al
000013E0  0000              add [bx+si],al
000013E2  0000              add [bx+si],al
000013E4  0000              add [bx+si],al
000013E6  0000              add [bx+si],al
000013E8  0000              add [bx+si],al
000013EA  0000              add [bx+si],al
000013EC  0000              add [bx+si],al
000013EE  0000              add [bx+si],al
000013F0  0000              add [bx+si],al
000013F2  0000              add [bx+si],al
000013F4  0000              add [bx+si],al
000013F6  0000              add [bx+si],al
000013F8  0000              add [bx+si],al
000013FA  0000              add [bx+si],al
000013FC  0000              add [bx+si],al
000013FE  0000              add [bx+si],al
00001400  0000              add [bx+si],al
00001402  0000              add [bx+si],al
00001404  0000              add [bx+si],al
00001406  0000              add [bx+si],al
00001408  0000              add [bx+si],al
0000140A  0000              add [bx+si],al
0000140C  0000              add [bx+si],al
0000140E  0000              add [bx+si],al
00001410  0000              add [bx+si],al
00001412  0000              add [bx+si],al
00001414  0000              add [bx+si],al
00001416  0000              add [bx+si],al
00001418  0000              add [bx+si],al
0000141A  0000              add [bx+si],al
0000141C  0000              add [bx+si],al
0000141E  0000              add [bx+si],al
00001420  0000              add [bx+si],al
00001422  0000              add [bx+si],al
00001424  0000              add [bx+si],al
00001426  0000              add [bx+si],al
00001428  0000              add [bx+si],al
0000142A  0000              add [bx+si],al
0000142C  0000              add [bx+si],al
0000142E  0000              add [bx+si],al
00001430  0000              add [bx+si],al
00001432  0000              add [bx+si],al
00001434  0000              add [bx+si],al
00001436  0000              add [bx+si],al
00001438  0000              add [bx+si],al
0000143A  0000              add [bx+si],al
0000143C  0000              add [bx+si],al
0000143E  0000              add [bx+si],al
00001440  0000              add [bx+si],al
00001442  0000              add [bx+si],al
00001444  0000              add [bx+si],al
00001446  0000              add [bx+si],al
00001448  0000              add [bx+si],al
0000144A  0000              add [bx+si],al
0000144C  0000              add [bx+si],al
0000144E  0000              add [bx+si],al
00001450  0000              add [bx+si],al
00001452  0000              add [bx+si],al
00001454  0000              add [bx+si],al
00001456  0000              add [bx+si],al
00001458  0000              add [bx+si],al
0000145A  0000              add [bx+si],al
0000145C  0000              add [bx+si],al
0000145E  0000              add [bx+si],al
00001460  0000              add [bx+si],al
00001462  0000              add [bx+si],al
00001464  0000              add [bx+si],al
00001466  0000              add [bx+si],al
00001468  0000              add [bx+si],al
0000146A  0000              add [bx+si],al
0000146C  0000              add [bx+si],al
0000146E  0000              add [bx+si],al
00001470  0000              add [bx+si],al
00001472  0000              add [bx+si],al
00001474  0000              add [bx+si],al
00001476  0000              add [bx+si],al
00001478  0000              add [bx+si],al
0000147A  0000              add [bx+si],al
0000147C  0000              add [bx+si],al
0000147E  0000              add [bx+si],al
00001480  0000              add [bx+si],al
00001482  0000              add [bx+si],al
00001484  0000              add [bx+si],al
00001486  0000              add [bx+si],al
00001488  0000              add [bx+si],al
0000148A  0000              add [bx+si],al
0000148C  0000              add [bx+si],al
0000148E  0000              add [bx+si],al
00001490  0000              add [bx+si],al
00001492  0000              add [bx+si],al
00001494  0000              add [bx+si],al
00001496  0000              add [bx+si],al
00001498  0000              add [bx+si],al
0000149A  0000              add [bx+si],al
0000149C  0000              add [bx+si],al
0000149E  0000              add [bx+si],al
000014A0  0000              add [bx+si],al
000014A2  0000              add [bx+si],al
000014A4  0000              add [bx+si],al
000014A6  0000              add [bx+si],al
000014A8  0000              add [bx+si],al
000014AA  0000              add [bx+si],al
000014AC  0000              add [bx+si],al
000014AE  0000              add [bx+si],al
000014B0  0000              add [bx+si],al
000014B2  0000              add [bx+si],al
000014B4  0000              add [bx+si],al
000014B6  0000              add [bx+si],al
000014B8  0000              add [bx+si],al
000014BA  0000              add [bx+si],al
000014BC  0000              add [bx+si],al
000014BE  0000              add [bx+si],al
000014C0  0000              add [bx+si],al
000014C2  0000              add [bx+si],al
000014C4  0000              add [bx+si],al
000014C6  0000              add [bx+si],al
000014C8  0000              add [bx+si],al
000014CA  0000              add [bx+si],al
000014CC  0000              add [bx+si],al
000014CE  0000              add [bx+si],al
000014D0  0000              add [bx+si],al
000014D2  0000              add [bx+si],al
000014D4  0000              add [bx+si],al
000014D6  0000              add [bx+si],al
000014D8  0000              add [bx+si],al
000014DA  0000              add [bx+si],al
000014DC  0000              add [bx+si],al
000014DE  0000              add [bx+si],al
000014E0  0000              add [bx+si],al
000014E2  0000              add [bx+si],al
000014E4  0000              add [bx+si],al
000014E6  0000              add [bx+si],al
000014E8  0000              add [bx+si],al
000014EA  0000              add [bx+si],al
000014EC  0000              add [bx+si],al
000014EE  0000              add [bx+si],al
000014F0  0000              add [bx+si],al
000014F2  0000              add [bx+si],al
000014F4  0000              add [bx+si],al
000014F6  0000              add [bx+si],al
000014F8  0000              add [bx+si],al
000014FA  0000              add [bx+si],al
000014FC  0000              add [bx+si],al
000014FE  0000              add [bx+si],al
00001500  0000              add [bx+si],al
00001502  0000              add [bx+si],al
00001504  0000              add [bx+si],al
00001506  0000              add [bx+si],al
00001508  0000              add [bx+si],al
0000150A  0000              add [bx+si],al
0000150C  0000              add [bx+si],al
0000150E  0000              add [bx+si],al
00001510  0000              add [bx+si],al
00001512  0000              add [bx+si],al
00001514  0000              add [bx+si],al
00001516  0000              add [bx+si],al
00001518  0000              add [bx+si],al
0000151A  0000              add [bx+si],al
0000151C  0000              add [bx+si],al
0000151E  0000              add [bx+si],al
00001520  0000              add [bx+si],al
00001522  0000              add [bx+si],al
00001524  0000              add [bx+si],al
00001526  0000              add [bx+si],al
00001528  0000              add [bx+si],al
0000152A  0000              add [bx+si],al
0000152C  0000              add [bx+si],al
0000152E  0000              add [bx+si],al
00001530  0000              add [bx+si],al
00001532  0000              add [bx+si],al
00001534  0000              add [bx+si],al
00001536  0000              add [bx+si],al
00001538  0000              add [bx+si],al
0000153A  0000              add [bx+si],al
0000153C  0000              add [bx+si],al
0000153E  0000              add [bx+si],al
00001540  0000              add [bx+si],al
00001542  0000              add [bx+si],al
00001544  0000              add [bx+si],al
00001546  0000              add [bx+si],al
00001548  0000              add [bx+si],al
0000154A  0000              add [bx+si],al
0000154C  0000              add [bx+si],al
0000154E  0000              add [bx+si],al
00001550  0000              add [bx+si],al
00001552  0000              add [bx+si],al
00001554  0000              add [bx+si],al
00001556  0000              add [bx+si],al
00001558  0000              add [bx+si],al
0000155A  0000              add [bx+si],al
0000155C  0000              add [bx+si],al
0000155E  0000              add [bx+si],al
00001560  0000              add [bx+si],al
00001562  0000              add [bx+si],al
00001564  0000              add [bx+si],al
00001566  0000              add [bx+si],al
00001568  0000              add [bx+si],al
0000156A  0000              add [bx+si],al
0000156C  0000              add [bx+si],al
0000156E  0000              add [bx+si],al
00001570  0000              add [bx+si],al
00001572  0000              add [bx+si],al
00001574  0000              add [bx+si],al
00001576  0000              add [bx+si],al
00001578  0000              add [bx+si],al
0000157A  0000              add [bx+si],al
0000157C  0000              add [bx+si],al
0000157E  0000              add [bx+si],al
00001580  0000              add [bx+si],al
00001582  0000              add [bx+si],al
00001584  0000              add [bx+si],al
00001586  0000              add [bx+si],al
00001588  0000              add [bx+si],al
0000158A  0000              add [bx+si],al
0000158C  0000              add [bx+si],al
0000158E  0000              add [bx+si],al
00001590  0000              add [bx+si],al
00001592  0000              add [bx+si],al
00001594  0000              add [bx+si],al
00001596  0000              add [bx+si],al
00001598  0000              add [bx+si],al
0000159A  0000              add [bx+si],al
0000159C  0000              add [bx+si],al
0000159E  0000              add [bx+si],al
000015A0  0000              add [bx+si],al
000015A2  0000              add [bx+si],al
000015A4  0000              add [bx+si],al
000015A6  0000              add [bx+si],al
000015A8  0000              add [bx+si],al
000015AA  0000              add [bx+si],al
000015AC  0000              add [bx+si],al
000015AE  0000              add [bx+si],al
000015B0  0000              add [bx+si],al
000015B2  0000              add [bx+si],al
000015B4  0000              add [bx+si],al
000015B6  0000              add [bx+si],al
000015B8  0000              add [bx+si],al
000015BA  0000              add [bx+si],al
000015BC  0000              add [bx+si],al
000015BE  0000              add [bx+si],al
000015C0  0000              add [bx+si],al
000015C2  0000              add [bx+si],al
000015C4  0000              add [bx+si],al
000015C6  0000              add [bx+si],al
000015C8  0000              add [bx+si],al
000015CA  0000              add [bx+si],al
000015CC  0000              add [bx+si],al
000015CE  0000              add [bx+si],al
000015D0  0000              add [bx+si],al
000015D2  0000              add [bx+si],al
000015D4  0000              add [bx+si],al
000015D6  0000              add [bx+si],al
000015D8  0000              add [bx+si],al
000015DA  0000              add [bx+si],al
000015DC  0000              add [bx+si],al
000015DE  0000              add [bx+si],al
000015E0  0000              add [bx+si],al
000015E2  0000              add [bx+si],al
000015E4  0000              add [bx+si],al
000015E6  0000              add [bx+si],al
000015E8  0000              add [bx+si],al
000015EA  0000              add [bx+si],al
000015EC  0000              add [bx+si],al
000015EE  0000              add [bx+si],al
000015F0  0000              add [bx+si],al
000015F2  0000              add [bx+si],al
000015F4  0000              add [bx+si],al
000015F6  0000              add [bx+si],al
000015F8  0000              add [bx+si],al
000015FA  0000              add [bx+si],al
000015FC  0000              add [bx+si],al
000015FE  0000              add [bx+si],al
00001600  0000              add [bx+si],al
00001602  0000              add [bx+si],al
00001604  0000              add [bx+si],al
00001606  0000              add [bx+si],al
00001608  0000              add [bx+si],al
0000160A  0000              add [bx+si],al
0000160C  0000              add [bx+si],al
0000160E  0000              add [bx+si],al
00001610  0000              add [bx+si],al
00001612  0000              add [bx+si],al
00001614  0000              add [bx+si],al
00001616  0000              add [bx+si],al
00001618  0000              add [bx+si],al
0000161A  0000              add [bx+si],al
0000161C  0000              add [bx+si],al
0000161E  0000              add [bx+si],al
00001620  0000              add [bx+si],al
00001622  0000              add [bx+si],al
00001624  0000              add [bx+si],al
00001626  0000              add [bx+si],al
00001628  0000              add [bx+si],al
0000162A  0000              add [bx+si],al
0000162C  0000              add [bx+si],al
0000162E  0000              add [bx+si],al
00001630  0000              add [bx+si],al
00001632  0000              add [bx+si],al
00001634  0000              add [bx+si],al
00001636  0000              add [bx+si],al
00001638  0000              add [bx+si],al
0000163A  0000              add [bx+si],al
0000163C  0000              add [bx+si],al
0000163E  0000              add [bx+si],al
00001640  0000              add [bx+si],al
00001642  0000              add [bx+si],al
00001644  0000              add [bx+si],al
00001646  0000              add [bx+si],al
00001648  0000              add [bx+si],al
0000164A  0000              add [bx+si],al
0000164C  0000              add [bx+si],al
0000164E  0000              add [bx+si],al
00001650  0000              add [bx+si],al
00001652  0000              add [bx+si],al
00001654  0000              add [bx+si],al
00001656  0000              add [bx+si],al
00001658  0000              add [bx+si],al
0000165A  0000              add [bx+si],al
0000165C  0000              add [bx+si],al
0000165E  0000              add [bx+si],al
00001660  0000              add [bx+si],al
00001662  0000              add [bx+si],al
00001664  0000              add [bx+si],al
00001666  0000              add [bx+si],al
00001668  0000              add [bx+si],al
0000166A  0000              add [bx+si],al
0000166C  0000              add [bx+si],al
0000166E  0000              add [bx+si],al
00001670  0000              add [bx+si],al
00001672  0000              add [bx+si],al
00001674  0000              add [bx+si],al
00001676  0000              add [bx+si],al
00001678  0000              add [bx+si],al
0000167A  0000              add [bx+si],al
0000167C  0000              add [bx+si],al
0000167E  0000              add [bx+si],al
00001680  0000              add [bx+si],al
00001682  0000              add [bx+si],al
00001684  0000              add [bx+si],al
00001686  0000              add [bx+si],al
00001688  0000              add [bx+si],al
0000168A  0000              add [bx+si],al
0000168C  0000              add [bx+si],al
0000168E  0000              add [bx+si],al
00001690  0000              add [bx+si],al
00001692  0000              add [bx+si],al
00001694  0000              add [bx+si],al
00001696  0000              add [bx+si],al
00001698  0000              add [bx+si],al
0000169A  0000              add [bx+si],al
0000169C  0000              add [bx+si],al
0000169E  0000              add [bx+si],al
000016A0  0000              add [bx+si],al
000016A2  0000              add [bx+si],al
000016A4  0000              add [bx+si],al
000016A6  0000              add [bx+si],al
000016A8  0000              add [bx+si],al
000016AA  0000              add [bx+si],al
000016AC  0000              add [bx+si],al
000016AE  0000              add [bx+si],al
000016B0  0000              add [bx+si],al
000016B2  0000              add [bx+si],al
000016B4  0000              add [bx+si],al
000016B6  0000              add [bx+si],al
000016B8  0000              add [bx+si],al
000016BA  0000              add [bx+si],al
000016BC  0000              add [bx+si],al
000016BE  0000              add [bx+si],al
000016C0  0000              add [bx+si],al
000016C2  0000              add [bx+si],al
000016C4  0000              add [bx+si],al
000016C6  0000              add [bx+si],al
000016C8  0000              add [bx+si],al
000016CA  0000              add [bx+si],al
000016CC  0000              add [bx+si],al
000016CE  0000              add [bx+si],al
000016D0  0000              add [bx+si],al
000016D2  0000              add [bx+si],al
000016D4  0000              add [bx+si],al
000016D6  0000              add [bx+si],al
000016D8  0000              add [bx+si],al
000016DA  0000              add [bx+si],al
000016DC  0000              add [bx+si],al
000016DE  0000              add [bx+si],al
000016E0  0000              add [bx+si],al
000016E2  0000              add [bx+si],al
000016E4  0000              add [bx+si],al
000016E6  0000              add [bx+si],al
000016E8  0000              add [bx+si],al
000016EA  0000              add [bx+si],al
000016EC  0000              add [bx+si],al
000016EE  0000              add [bx+si],al
000016F0  0000              add [bx+si],al
000016F2  0000              add [bx+si],al
000016F4  0000              add [bx+si],al
000016F6  0000              add [bx+si],al
000016F8  0000              add [bx+si],al
000016FA  0000              add [bx+si],al
000016FC  0000              add [bx+si],al
000016FE  0000              add [bx+si],al
00001700  0000              add [bx+si],al
00001702  0000              add [bx+si],al
00001704  0000              add [bx+si],al
00001706  0000              add [bx+si],al
00001708  0000              add [bx+si],al
0000170A  0000              add [bx+si],al
0000170C  0000              add [bx+si],al
0000170E  0000              add [bx+si],al
00001710  0000              add [bx+si],al
00001712  0000              add [bx+si],al
00001714  0000              add [bx+si],al
00001716  0000              add [bx+si],al
00001718  0000              add [bx+si],al
0000171A  0000              add [bx+si],al
0000171C  0000              add [bx+si],al
0000171E  0000              add [bx+si],al
00001720  0000              add [bx+si],al
00001722  0000              add [bx+si],al
00001724  0000              add [bx+si],al
00001726  0000              add [bx+si],al
00001728  0000              add [bx+si],al
0000172A  0000              add [bx+si],al
0000172C  0000              add [bx+si],al
0000172E  0000              add [bx+si],al
00001730  0000              add [bx+si],al
00001732  0000              add [bx+si],al
00001734  0000              add [bx+si],al
00001736  0000              add [bx+si],al
00001738  0000              add [bx+si],al
0000173A  0000              add [bx+si],al
0000173C  0000              add [bx+si],al
0000173E  0000              add [bx+si],al
00001740  0000              add [bx+si],al
00001742  0000              add [bx+si],al
00001744  0000              add [bx+si],al
00001746  0000              add [bx+si],al
00001748  0000              add [bx+si],al
0000174A  0000              add [bx+si],al
0000174C  0000              add [bx+si],al
0000174E  0000              add [bx+si],al
00001750  0000              add [bx+si],al
00001752  0000              add [bx+si],al
00001754  0000              add [bx+si],al
00001756  0000              add [bx+si],al
00001758  0000              add [bx+si],al
0000175A  0000              add [bx+si],al
0000175C  0000              add [bx+si],al
0000175E  0000              add [bx+si],al
00001760  0000              add [bx+si],al
00001762  0000              add [bx+si],al
00001764  0000              add [bx+si],al
00001766  0000              add [bx+si],al
00001768  0000              add [bx+si],al
0000176A  0000              add [bx+si],al
0000176C  0000              add [bx+si],al
0000176E  0000              add [bx+si],al
00001770  0000              add [bx+si],al
00001772  0000              add [bx+si],al
00001774  0000              add [bx+si],al
00001776  0000              add [bx+si],al
00001778  0000              add [bx+si],al
0000177A  0000              add [bx+si],al
0000177C  0000              add [bx+si],al
0000177E  0000              add [bx+si],al
00001780  0000              add [bx+si],al
00001782  0000              add [bx+si],al
00001784  0000              add [bx+si],al
00001786  0000              add [bx+si],al
00001788  0000              add [bx+si],al
0000178A  0000              add [bx+si],al
0000178C  0000              add [bx+si],al
0000178E  0000              add [bx+si],al
00001790  0000              add [bx+si],al
00001792  0000              add [bx+si],al
00001794  0000              add [bx+si],al
00001796  0000              add [bx+si],al
00001798  0000              add [bx+si],al
0000179A  0000              add [bx+si],al
0000179C  0000              add [bx+si],al
0000179E  0000              add [bx+si],al
000017A0  0000              add [bx+si],al
000017A2  0000              add [bx+si],al
000017A4  0000              add [bx+si],al
000017A6  0000              add [bx+si],al
000017A8  0000              add [bx+si],al
000017AA  0000              add [bx+si],al
000017AC  0000              add [bx+si],al
000017AE  0000              add [bx+si],al
000017B0  0000              add [bx+si],al
000017B2  0000              add [bx+si],al
000017B4  0000              add [bx+si],al
000017B6  0000              add [bx+si],al
000017B8  0000              add [bx+si],al
000017BA  0000              add [bx+si],al
000017BC  0000              add [bx+si],al
000017BE  0000              add [bx+si],al
000017C0  0000              add [bx+si],al
000017C2  0000              add [bx+si],al
000017C4  0000              add [bx+si],al
000017C6  0000              add [bx+si],al
000017C8  0000              add [bx+si],al
000017CA  0000              add [bx+si],al
000017CC  0000              add [bx+si],al
000017CE  0000              add [bx+si],al
000017D0  0000              add [bx+si],al
000017D2  0000              add [bx+si],al
000017D4  0000              add [bx+si],al
000017D6  0000              add [bx+si],al
000017D8  0000              add [bx+si],al
000017DA  0000              add [bx+si],al
000017DC  0000              add [bx+si],al
000017DE  0000              add [bx+si],al
000017E0  0000              add [bx+si],al
000017E2  0000              add [bx+si],al
000017E4  0000              add [bx+si],al
000017E6  0000              add [bx+si],al
000017E8  0000              add [bx+si],al
000017EA  0000              add [bx+si],al
000017EC  0000              add [bx+si],al
000017EE  0000              add [bx+si],al
000017F0  0000              add [bx+si],al
000017F2  0000              add [bx+si],al
000017F4  0000              add [bx+si],al
000017F6  0000              add [bx+si],al
000017F8  0000              add [bx+si],al
000017FA  0000              add [bx+si],al
000017FC  0000              add [bx+si],al
000017FE  0000              add [bx+si],al
00001800  0000              add [bx+si],al
00001802  0000              add [bx+si],al
00001804  0000              add [bx+si],al
00001806  0000              add [bx+si],al
00001808  0000              add [bx+si],al
0000180A  0000              add [bx+si],al
0000180C  0000              add [bx+si],al
0000180E  0000              add [bx+si],al
00001810  0000              add [bx+si],al
00001812  0000              add [bx+si],al
00001814  0000              add [bx+si],al
00001816  0000              add [bx+si],al
00001818  0000              add [bx+si],al
0000181A  0000              add [bx+si],al
0000181C  0000              add [bx+si],al
0000181E  0000              add [bx+si],al
00001820  0000              add [bx+si],al
00001822  0000              add [bx+si],al
00001824  0000              add [bx+si],al
00001826  0000              add [bx+si],al
00001828  0000              add [bx+si],al
0000182A  0000              add [bx+si],al
0000182C  0000              add [bx+si],al
0000182E  0000              add [bx+si],al
00001830  0000              add [bx+si],al
00001832  0000              add [bx+si],al
00001834  0000              add [bx+si],al
00001836  0000              add [bx+si],al
00001838  0000              add [bx+si],al
0000183A  0000              add [bx+si],al
0000183C  0000              add [bx+si],al
0000183E  0000              add [bx+si],al
00001840  0000              add [bx+si],al
00001842  0000              add [bx+si],al
00001844  0000              add [bx+si],al
00001846  0000              add [bx+si],al
00001848  0000              add [bx+si],al
0000184A  0000              add [bx+si],al
0000184C  0000              add [bx+si],al
0000184E  0000              add [bx+si],al
00001850  0000              add [bx+si],al
00001852  0000              add [bx+si],al
00001854  0000              add [bx+si],al
00001856  0000              add [bx+si],al
00001858  0000              add [bx+si],al
0000185A  0000              add [bx+si],al
0000185C  0000              add [bx+si],al
0000185E  0000              add [bx+si],al
00001860  0000              add [bx+si],al
00001862  0000              add [bx+si],al
00001864  0000              add [bx+si],al
00001866  0000              add [bx+si],al
00001868  0000              add [bx+si],al
0000186A  0000              add [bx+si],al
0000186C  0000              add [bx+si],al
0000186E  0000              add [bx+si],al
00001870  0000              add [bx+si],al
00001872  0000              add [bx+si],al
00001874  0000              add [bx+si],al
00001876  0000              add [bx+si],al
00001878  0000              add [bx+si],al
0000187A  0000              add [bx+si],al
0000187C  0000              add [bx+si],al
0000187E  0000              add [bx+si],al
00001880  0000              add [bx+si],al
00001882  0000              add [bx+si],al
00001884  0000              add [bx+si],al
00001886  0000              add [bx+si],al
00001888  0000              add [bx+si],al
0000188A  0000              add [bx+si],al
0000188C  0000              add [bx+si],al
0000188E  0000              add [bx+si],al
00001890  0000              add [bx+si],al
00001892  0000              add [bx+si],al
00001894  0000              add [bx+si],al
00001896  0000              add [bx+si],al
00001898  0000              add [bx+si],al
0000189A  0000              add [bx+si],al
0000189C  0000              add [bx+si],al
0000189E  0000              add [bx+si],al
000018A0  0000              add [bx+si],al
000018A2  0000              add [bx+si],al
000018A4  0000              add [bx+si],al
000018A6  0000              add [bx+si],al
000018A8  0000              add [bx+si],al
000018AA  0000              add [bx+si],al
000018AC  0000              add [bx+si],al
000018AE  0000              add [bx+si],al
000018B0  0000              add [bx+si],al
000018B2  0000              add [bx+si],al
000018B4  0000              add [bx+si],al
000018B6  0000              add [bx+si],al
000018B8  0000              add [bx+si],al
000018BA  0000              add [bx+si],al
000018BC  0000              add [bx+si],al
000018BE  0000              add [bx+si],al
000018C0  0000              add [bx+si],al
000018C2  0000              add [bx+si],al
000018C4  0000              add [bx+si],al
000018C6  0000              add [bx+si],al
000018C8  0000              add [bx+si],al
000018CA  0000              add [bx+si],al
000018CC  0000              add [bx+si],al
000018CE  0000              add [bx+si],al
000018D0  0000              add [bx+si],al
000018D2  0000              add [bx+si],al
000018D4  0000              add [bx+si],al
000018D6  0000              add [bx+si],al
000018D8  0000              add [bx+si],al
000018DA  0000              add [bx+si],al
000018DC  0000              add [bx+si],al
000018DE  0000              add [bx+si],al
000018E0  0000              add [bx+si],al
000018E2  0000              add [bx+si],al
000018E4  0000              add [bx+si],al
000018E6  0000              add [bx+si],al
000018E8  0000              add [bx+si],al
000018EA  0000              add [bx+si],al
000018EC  0000              add [bx+si],al
000018EE  0000              add [bx+si],al
000018F0  0000              add [bx+si],al
000018F2  0000              add [bx+si],al
000018F4  0000              add [bx+si],al
000018F6  0000              add [bx+si],al
000018F8  0000              add [bx+si],al
000018FA  0000              add [bx+si],al
000018FC  0000              add [bx+si],al
000018FE  0000              add [bx+si],al
00001900  0000              add [bx+si],al
00001902  0000              add [bx+si],al
00001904  0000              add [bx+si],al
00001906  0000              add [bx+si],al
00001908  0000              add [bx+si],al
0000190A  0000              add [bx+si],al
0000190C  0000              add [bx+si],al
0000190E  0000              add [bx+si],al
00001910  0000              add [bx+si],al
00001912  0000              add [bx+si],al
00001914  0000              add [bx+si],al
00001916  0000              add [bx+si],al
00001918  0000              add [bx+si],al
0000191A  0000              add [bx+si],al
0000191C  0000              add [bx+si],al
0000191E  0000              add [bx+si],al
00001920  0000              add [bx+si],al
00001922  0000              add [bx+si],al
00001924  0000              add [bx+si],al
00001926  0000              add [bx+si],al
00001928  0000              add [bx+si],al
0000192A  0000              add [bx+si],al
0000192C  0000              add [bx+si],al
0000192E  0000              add [bx+si],al
00001930  0000              add [bx+si],al
00001932  0000              add [bx+si],al
00001934  0000              add [bx+si],al
00001936  0000              add [bx+si],al
00001938  0000              add [bx+si],al
0000193A  0000              add [bx+si],al
0000193C  0000              add [bx+si],al
0000193E  0000              add [bx+si],al
00001940  0000              add [bx+si],al
00001942  0000              add [bx+si],al
00001944  0000              add [bx+si],al
00001946  0000              add [bx+si],al
00001948  0000              add [bx+si],al
0000194A  0000              add [bx+si],al
0000194C  0000              add [bx+si],al
0000194E  0000              add [bx+si],al
00001950  0000              add [bx+si],al
00001952  0000              add [bx+si],al
00001954  0000              add [bx+si],al
00001956  0000              add [bx+si],al
00001958  0000              add [bx+si],al
0000195A  0000              add [bx+si],al
0000195C  0000              add [bx+si],al
0000195E  0000              add [bx+si],al
00001960  0000              add [bx+si],al
00001962  0000              add [bx+si],al
00001964  0000              add [bx+si],al
00001966  0000              add [bx+si],al
00001968  0000              add [bx+si],al
0000196A  0000              add [bx+si],al
0000196C  0000              add [bx+si],al
0000196E  0000              add [bx+si],al
00001970  0000              add [bx+si],al
00001972  0000              add [bx+si],al
00001974  0000              add [bx+si],al
00001976  0000              add [bx+si],al
00001978  0000              add [bx+si],al
0000197A  0000              add [bx+si],al
0000197C  0000              add [bx+si],al
0000197E  0000              add [bx+si],al
00001980  0000              add [bx+si],al
00001982  0000              add [bx+si],al
00001984  0000              add [bx+si],al
00001986  0000              add [bx+si],al
00001988  0000              add [bx+si],al
0000198A  0000              add [bx+si],al
0000198C  0000              add [bx+si],al
0000198E  0000              add [bx+si],al
00001990  0000              add [bx+si],al
00001992  0000              add [bx+si],al
00001994  0000              add [bx+si],al
00001996  0000              add [bx+si],al
00001998  0000              add [bx+si],al
0000199A  0000              add [bx+si],al
0000199C  0000              add [bx+si],al
0000199E  0000              add [bx+si],al
000019A0  0000              add [bx+si],al
000019A2  0000              add [bx+si],al
000019A4  0000              add [bx+si],al
000019A6  0000              add [bx+si],al
000019A8  0000              add [bx+si],al
000019AA  0000              add [bx+si],al
000019AC  0000              add [bx+si],al
000019AE  0000              add [bx+si],al
000019B0  0000              add [bx+si],al
000019B2  0000              add [bx+si],al
000019B4  0000              add [bx+si],al
000019B6  0000              add [bx+si],al
000019B8  0000              add [bx+si],al
000019BA  0000              add [bx+si],al
000019BC  0000              add [bx+si],al
000019BE  0000              add [bx+si],al
000019C0  0000              add [bx+si],al
000019C2  0000              add [bx+si],al
000019C4  0000              add [bx+si],al
000019C6  0000              add [bx+si],al
000019C8  0000              add [bx+si],al
000019CA  0000              add [bx+si],al
000019CC  0000              add [bx+si],al
000019CE  0000              add [bx+si],al
000019D0  0000              add [bx+si],al
000019D2  0000              add [bx+si],al
000019D4  0000              add [bx+si],al
000019D6  0000              add [bx+si],al
000019D8  0000              add [bx+si],al
000019DA  0000              add [bx+si],al
000019DC  0000              add [bx+si],al
000019DE  0000              add [bx+si],al
000019E0  0000              add [bx+si],al
000019E2  0000              add [bx+si],al
000019E4  0000              add [bx+si],al
000019E6  0000              add [bx+si],al
000019E8  0000              add [bx+si],al
000019EA  0000              add [bx+si],al
000019EC  0000              add [bx+si],al
000019EE  0000              add [bx+si],al
000019F0  0000              add [bx+si],al
000019F2  0000              add [bx+si],al
000019F4  0000              add [bx+si],al
000019F6  0000              add [bx+si],al
000019F8  0000              add [bx+si],al
000019FA  0000              add [bx+si],al
000019FC  0000              add [bx+si],al
000019FE  0000              add [bx+si],al
00001A00  0000              add [bx+si],al
00001A02  0000              add [bx+si],al
00001A04  0000              add [bx+si],al
00001A06  0000              add [bx+si],al
00001A08  0000              add [bx+si],al
00001A0A  0000              add [bx+si],al
00001A0C  0000              add [bx+si],al
00001A0E  0000              add [bx+si],al
00001A10  0000              add [bx+si],al
00001A12  0000              add [bx+si],al
00001A14  0000              add [bx+si],al
00001A16  0000              add [bx+si],al
00001A18  0000              add [bx+si],al
00001A1A  0000              add [bx+si],al
00001A1C  0000              add [bx+si],al
00001A1E  0000              add [bx+si],al
00001A20  0000              add [bx+si],al
00001A22  0000              add [bx+si],al
00001A24  0000              add [bx+si],al
00001A26  0000              add [bx+si],al
00001A28  0000              add [bx+si],al
00001A2A  0000              add [bx+si],al
00001A2C  0000              add [bx+si],al
00001A2E  0000              add [bx+si],al
00001A30  0000              add [bx+si],al
00001A32  0000              add [bx+si],al
00001A34  0000              add [bx+si],al
00001A36  0000              add [bx+si],al
00001A38  0000              add [bx+si],al
00001A3A  0000              add [bx+si],al
00001A3C  0000              add [bx+si],al
00001A3E  0000              add [bx+si],al
00001A40  0000              add [bx+si],al
00001A42  0000              add [bx+si],al
00001A44  0000              add [bx+si],al
00001A46  0000              add [bx+si],al
00001A48  0000              add [bx+si],al
00001A4A  0000              add [bx+si],al
00001A4C  0000              add [bx+si],al
00001A4E  0000              add [bx+si],al
00001A50  0000              add [bx+si],al
00001A52  0000              add [bx+si],al
00001A54  0000              add [bx+si],al
00001A56  0000              add [bx+si],al
00001A58  0000              add [bx+si],al
00001A5A  0000              add [bx+si],al
00001A5C  0000              add [bx+si],al
00001A5E  0000              add [bx+si],al
00001A60  0000              add [bx+si],al
00001A62  0000              add [bx+si],al
00001A64  0000              add [bx+si],al
00001A66  0000              add [bx+si],al
00001A68  0000              add [bx+si],al
00001A6A  0000              add [bx+si],al
00001A6C  0000              add [bx+si],al
00001A6E  0000              add [bx+si],al
00001A70  0000              add [bx+si],al
00001A72  0000              add [bx+si],al
00001A74  0000              add [bx+si],al
00001A76  0000              add [bx+si],al
00001A78  0000              add [bx+si],al
00001A7A  0000              add [bx+si],al
00001A7C  0000              add [bx+si],al
00001A7E  0000              add [bx+si],al
00001A80  0000              add [bx+si],al
00001A82  0000              add [bx+si],al
00001A84  0000              add [bx+si],al
00001A86  0000              add [bx+si],al
00001A88  0000              add [bx+si],al
00001A8A  0000              add [bx+si],al
00001A8C  0000              add [bx+si],al
00001A8E  0000              add [bx+si],al
00001A90  0000              add [bx+si],al
00001A92  0000              add [bx+si],al
00001A94  0000              add [bx+si],al
00001A96  0000              add [bx+si],al
00001A98  0000              add [bx+si],al
00001A9A  0000              add [bx+si],al
00001A9C  0000              add [bx+si],al
00001A9E  0000              add [bx+si],al
00001AA0  0000              add [bx+si],al
00001AA2  0000              add [bx+si],al
00001AA4  0000              add [bx+si],al
00001AA6  0000              add [bx+si],al
00001AA8  0000              add [bx+si],al
00001AAA  0000              add [bx+si],al
00001AAC  0000              add [bx+si],al
00001AAE  0000              add [bx+si],al
00001AB0  0000              add [bx+si],al
00001AB2  0000              add [bx+si],al
00001AB4  0000              add [bx+si],al
00001AB6  0000              add [bx+si],al
00001AB8  0000              add [bx+si],al
00001ABA  0000              add [bx+si],al
00001ABC  0000              add [bx+si],al
00001ABE  0000              add [bx+si],al
00001AC0  0000              add [bx+si],al
00001AC2  0000              add [bx+si],al
00001AC4  0000              add [bx+si],al
00001AC6  0000              add [bx+si],al
00001AC8  0000              add [bx+si],al
00001ACA  0000              add [bx+si],al
00001ACC  0000              add [bx+si],al
00001ACE  0000              add [bx+si],al
00001AD0  0000              add [bx+si],al
00001AD2  0000              add [bx+si],al
00001AD4  0000              add [bx+si],al
00001AD6  0000              add [bx+si],al
00001AD8  0000              add [bx+si],al
00001ADA  0000              add [bx+si],al
00001ADC  0000              add [bx+si],al
00001ADE  0000              add [bx+si],al
00001AE0  0000              add [bx+si],al
00001AE2  0000              add [bx+si],al
00001AE4  0000              add [bx+si],al
00001AE6  0000              add [bx+si],al
00001AE8  0000              add [bx+si],al
00001AEA  0000              add [bx+si],al
00001AEC  0000              add [bx+si],al
00001AEE  0000              add [bx+si],al
00001AF0  0000              add [bx+si],al
00001AF2  0000              add [bx+si],al
00001AF4  0000              add [bx+si],al
00001AF6  0000              add [bx+si],al
00001AF8  0000              add [bx+si],al
00001AFA  0000              add [bx+si],al
00001AFC  0000              add [bx+si],al
00001AFE  0000              add [bx+si],al
00001B00  0000              add [bx+si],al
00001B02  0000              add [bx+si],al
00001B04  0000              add [bx+si],al
00001B06  0000              add [bx+si],al
00001B08  0000              add [bx+si],al
00001B0A  0000              add [bx+si],al
00001B0C  0000              add [bx+si],al
00001B0E  0000              add [bx+si],al
00001B10  0000              add [bx+si],al
00001B12  0000              add [bx+si],al
00001B14  0000              add [bx+si],al
00001B16  0000              add [bx+si],al
00001B18  0000              add [bx+si],al
00001B1A  0000              add [bx+si],al
00001B1C  0000              add [bx+si],al
00001B1E  0000              add [bx+si],al
00001B20  0000              add [bx+si],al
00001B22  0000              add [bx+si],al
00001B24  0000              add [bx+si],al
00001B26  0000              add [bx+si],al
00001B28  0000              add [bx+si],al
00001B2A  0000              add [bx+si],al
00001B2C  0000              add [bx+si],al
00001B2E  0000              add [bx+si],al
00001B30  0000              add [bx+si],al
00001B32  0000              add [bx+si],al
00001B34  0000              add [bx+si],al
00001B36  0000              add [bx+si],al
00001B38  0000              add [bx+si],al
00001B3A  0000              add [bx+si],al
00001B3C  0000              add [bx+si],al
00001B3E  0000              add [bx+si],al
00001B40  0000              add [bx+si],al
00001B42  0000              add [bx+si],al
00001B44  0000              add [bx+si],al
00001B46  0000              add [bx+si],al
00001B48  0000              add [bx+si],al
00001B4A  0000              add [bx+si],al
00001B4C  0000              add [bx+si],al
00001B4E  0000              add [bx+si],al
00001B50  0000              add [bx+si],al
00001B52  0000              add [bx+si],al
00001B54  0000              add [bx+si],al
00001B56  0000              add [bx+si],al
00001B58  0000              add [bx+si],al
00001B5A  0000              add [bx+si],al
00001B5C  0000              add [bx+si],al
00001B5E  0000              add [bx+si],al
00001B60  0000              add [bx+si],al
00001B62  0000              add [bx+si],al
00001B64  0000              add [bx+si],al
00001B66  0000              add [bx+si],al
00001B68  0000              add [bx+si],al
00001B6A  0000              add [bx+si],al
00001B6C  0000              add [bx+si],al
00001B6E  0000              add [bx+si],al
00001B70  0000              add [bx+si],al
00001B72  0000              add [bx+si],al
00001B74  0000              add [bx+si],al
00001B76  0000              add [bx+si],al
00001B78  0000              add [bx+si],al
00001B7A  0000              add [bx+si],al
00001B7C  0000              add [bx+si],al
00001B7E  0000              add [bx+si],al
00001B80  0000              add [bx+si],al
00001B82  0000              add [bx+si],al
00001B84  0000              add [bx+si],al
00001B86  0000              add [bx+si],al
00001B88  0000              add [bx+si],al
00001B8A  0000              add [bx+si],al
00001B8C  0000              add [bx+si],al
00001B8E  0000              add [bx+si],al
00001B90  0000              add [bx+si],al
00001B92  0000              add [bx+si],al
00001B94  0000              add [bx+si],al
00001B96  0000              add [bx+si],al
00001B98  0000              add [bx+si],al
00001B9A  0000              add [bx+si],al
00001B9C  0000              add [bx+si],al
00001B9E  0000              add [bx+si],al
00001BA0  0000              add [bx+si],al
00001BA2  0000              add [bx+si],al
00001BA4  0000              add [bx+si],al
00001BA6  0000              add [bx+si],al
00001BA8  0000              add [bx+si],al
00001BAA  0000              add [bx+si],al
00001BAC  0000              add [bx+si],al
00001BAE  0000              add [bx+si],al
00001BB0  0000              add [bx+si],al
00001BB2  0000              add [bx+si],al
00001BB4  0000              add [bx+si],al
00001BB6  0000              add [bx+si],al
00001BB8  0000              add [bx+si],al
00001BBA  0000              add [bx+si],al
00001BBC  0000              add [bx+si],al
00001BBE  0000              add [bx+si],al
00001BC0  0000              add [bx+si],al
00001BC2  0000              add [bx+si],al
00001BC4  0000              add [bx+si],al
00001BC6  0000              add [bx+si],al
00001BC8  0000              add [bx+si],al
00001BCA  0000              add [bx+si],al
00001BCC  0000              add [bx+si],al
00001BCE  0000              add [bx+si],al
00001BD0  0000              add [bx+si],al
00001BD2  0000              add [bx+si],al
00001BD4  0000              add [bx+si],al
00001BD6  0000              add [bx+si],al
00001BD8  0000              add [bx+si],al
00001BDA  0000              add [bx+si],al
00001BDC  0000              add [bx+si],al
00001BDE  0000              add [bx+si],al
00001BE0  0000              add [bx+si],al
00001BE2  0000              add [bx+si],al
00001BE4  0000              add [bx+si],al
00001BE6  0000              add [bx+si],al
00001BE8  0000              add [bx+si],al
00001BEA  0000              add [bx+si],al
00001BEC  0000              add [bx+si],al
00001BEE  0000              add [bx+si],al
00001BF0  0000              add [bx+si],al
00001BF2  0000              add [bx+si],al
00001BF4  0000              add [bx+si],al
00001BF6  0000              add [bx+si],al
00001BF8  0000              add [bx+si],al
00001BFA  0000              add [bx+si],al
00001BFC  0000              add [bx+si],al
00001BFE  0000              add [bx+si],al
00001C00  0000              add [bx+si],al
00001C02  0000              add [bx+si],al
00001C04  0000              add [bx+si],al
00001C06  0000              add [bx+si],al
00001C08  0000              add [bx+si],al
00001C0A  0000              add [bx+si],al
00001C0C  0000              add [bx+si],al
00001C0E  0000              add [bx+si],al
00001C10  0000              add [bx+si],al
00001C12  0000              add [bx+si],al
00001C14  0000              add [bx+si],al
00001C16  0000              add [bx+si],al
00001C18  0000              add [bx+si],al
00001C1A  0000              add [bx+si],al
00001C1C  0000              add [bx+si],al
00001C1E  0000              add [bx+si],al
00001C20  0000              add [bx+si],al
00001C22  0000              add [bx+si],al
00001C24  0000              add [bx+si],al
00001C26  0000              add [bx+si],al
00001C28  0000              add [bx+si],al
00001C2A  0000              add [bx+si],al
00001C2C  0000              add [bx+si],al
00001C2E  0000              add [bx+si],al
00001C30  0000              add [bx+si],al
00001C32  0000              add [bx+si],al
00001C34  0000              add [bx+si],al
00001C36  0000              add [bx+si],al
00001C38  0000              add [bx+si],al
00001C3A  0000              add [bx+si],al
00001C3C  0000              add [bx+si],al
00001C3E  0000              add [bx+si],al
00001C40  0000              add [bx+si],al
00001C42  0000              add [bx+si],al
00001C44  0000              add [bx+si],al
00001C46  0000              add [bx+si],al
00001C48  0000              add [bx+si],al
00001C4A  0000              add [bx+si],al
00001C4C  0000              add [bx+si],al
00001C4E  0000              add [bx+si],al
00001C50  0000              add [bx+si],al
00001C52  0000              add [bx+si],al
00001C54  0000              add [bx+si],al
00001C56  0000              add [bx+si],al
00001C58  0000              add [bx+si],al
00001C5A  0000              add [bx+si],al
00001C5C  0000              add [bx+si],al
00001C5E  0000              add [bx+si],al
00001C60  0000              add [bx+si],al
00001C62  0000              add [bx+si],al
00001C64  0000              add [bx+si],al
00001C66  0000              add [bx+si],al
00001C68  0000              add [bx+si],al
00001C6A  0000              add [bx+si],al
00001C6C  0000              add [bx+si],al
00001C6E  0000              add [bx+si],al
00001C70  0000              add [bx+si],al
00001C72  0000              add [bx+si],al
00001C74  0000              add [bx+si],al
00001C76  0000              add [bx+si],al
00001C78  0000              add [bx+si],al
00001C7A  0000              add [bx+si],al
00001C7C  0000              add [bx+si],al
00001C7E  0000              add [bx+si],al
00001C80  0000              add [bx+si],al
00001C82  0000              add [bx+si],al
00001C84  0000              add [bx+si],al
00001C86  0000              add [bx+si],al
00001C88  0000              add [bx+si],al
00001C8A  0000              add [bx+si],al
00001C8C  0000              add [bx+si],al
00001C8E  0000              add [bx+si],al
00001C90  0000              add [bx+si],al
00001C92  0000              add [bx+si],al
00001C94  0000              add [bx+si],al
00001C96  0000              add [bx+si],al
00001C98  0000              add [bx+si],al
00001C9A  0000              add [bx+si],al
00001C9C  0000              add [bx+si],al
00001C9E  0000              add [bx+si],al
00001CA0  0000              add [bx+si],al
00001CA2  0000              add [bx+si],al
00001CA4  0000              add [bx+si],al
00001CA6  0000              add [bx+si],al
00001CA8  0000              add [bx+si],al
00001CAA  0000              add [bx+si],al
00001CAC  0000              add [bx+si],al
00001CAE  0000              add [bx+si],al
00001CB0  0000              add [bx+si],al
00001CB2  0000              add [bx+si],al
00001CB4  0000              add [bx+si],al
00001CB6  0000              add [bx+si],al
00001CB8  0000              add [bx+si],al
00001CBA  0000              add [bx+si],al
00001CBC  0000              add [bx+si],al
00001CBE  0000              add [bx+si],al
00001CC0  0000              add [bx+si],al
00001CC2  0000              add [bx+si],al
00001CC4  0000              add [bx+si],al
00001CC6  0000              add [bx+si],al
00001CC8  0000              add [bx+si],al
00001CCA  0000              add [bx+si],al
00001CCC  0000              add [bx+si],al
00001CCE  0000              add [bx+si],al
00001CD0  0000              add [bx+si],al
00001CD2  0000              add [bx+si],al
00001CD4  0000              add [bx+si],al
00001CD6  0000              add [bx+si],al
00001CD8  0000              add [bx+si],al
00001CDA  0000              add [bx+si],al
00001CDC  0000              add [bx+si],al
00001CDE  0000              add [bx+si],al
00001CE0  0000              add [bx+si],al
00001CE2  0000              add [bx+si],al
00001CE4  0000              add [bx+si],al
00001CE6  0000              add [bx+si],al
00001CE8  0000              add [bx+si],al
00001CEA  0000              add [bx+si],al
00001CEC  0000              add [bx+si],al
00001CEE  0000              add [bx+si],al
00001CF0  0000              add [bx+si],al
00001CF2  0000              add [bx+si],al
00001CF4  0000              add [bx+si],al
00001CF6  0000              add [bx+si],al
00001CF8  0000              add [bx+si],al
00001CFA  0000              add [bx+si],al
00001CFC  0000              add [bx+si],al
00001CFE  0000              add [bx+si],al
00001D00  0000              add [bx+si],al
00001D02  0000              add [bx+si],al
00001D04  0000              add [bx+si],al
00001D06  0000              add [bx+si],al
00001D08  0000              add [bx+si],al
00001D0A  0000              add [bx+si],al
00001D0C  0000              add [bx+si],al
00001D0E  0000              add [bx+si],al
00001D10  0000              add [bx+si],al
00001D12  0000              add [bx+si],al
00001D14  0000              add [bx+si],al
00001D16  0000              add [bx+si],al
00001D18  0000              add [bx+si],al
00001D1A  0000              add [bx+si],al
00001D1C  0000              add [bx+si],al
00001D1E  0000              add [bx+si],al
00001D20  0000              add [bx+si],al
00001D22  0000              add [bx+si],al
00001D24  0000              add [bx+si],al
00001D26  0000              add [bx+si],al
00001D28  0000              add [bx+si],al
00001D2A  0000              add [bx+si],al
00001D2C  0000              add [bx+si],al
00001D2E  0000              add [bx+si],al
00001D30  0000              add [bx+si],al
00001D32  0000              add [bx+si],al
00001D34  0000              add [bx+si],al
00001D36  0000              add [bx+si],al
00001D38  0000              add [bx+si],al
00001D3A  0000              add [bx+si],al
00001D3C  0000              add [bx+si],al
00001D3E  0000              add [bx+si],al
00001D40  0000              add [bx+si],al
00001D42  0000              add [bx+si],al
00001D44  0000              add [bx+si],al
00001D46  0000              add [bx+si],al
00001D48  0000              add [bx+si],al
00001D4A  0000              add [bx+si],al
00001D4C  0000              add [bx+si],al
00001D4E  0000              add [bx+si],al
00001D50  0000              add [bx+si],al
00001D52  0000              add [bx+si],al
00001D54  0000              add [bx+si],al
00001D56  0000              add [bx+si],al
00001D58  0000              add [bx+si],al
00001D5A  0000              add [bx+si],al
00001D5C  0000              add [bx+si],al
00001D5E  0000              add [bx+si],al
00001D60  0000              add [bx+si],al
00001D62  0000              add [bx+si],al
00001D64  0000              add [bx+si],al
00001D66  0000              add [bx+si],al
00001D68  0000              add [bx+si],al
00001D6A  0000              add [bx+si],al
00001D6C  0000              add [bx+si],al
00001D6E  0000              add [bx+si],al
00001D70  0000              add [bx+si],al
00001D72  0000              add [bx+si],al
00001D74  0000              add [bx+si],al
00001D76  0000              add [bx+si],al
00001D78  0000              add [bx+si],al
00001D7A  0000              add [bx+si],al
00001D7C  0000              add [bx+si],al
00001D7E  0000              add [bx+si],al
00001D80  0000              add [bx+si],al
00001D82  0000              add [bx+si],al
00001D84  0000              add [bx+si],al
00001D86  0000              add [bx+si],al
00001D88  0000              add [bx+si],al
00001D8A  0000              add [bx+si],al
00001D8C  0000              add [bx+si],al
00001D8E  0000              add [bx+si],al
00001D90  0000              add [bx+si],al
00001D92  0000              add [bx+si],al
00001D94  0000              add [bx+si],al
00001D96  0000              add [bx+si],al
00001D98  0000              add [bx+si],al
00001D9A  0000              add [bx+si],al
00001D9C  0000              add [bx+si],al
00001D9E  0000              add [bx+si],al
00001DA0  0000              add [bx+si],al
00001DA2  0000              add [bx+si],al
00001DA4  0000              add [bx+si],al
00001DA6  0000              add [bx+si],al
00001DA8  0000              add [bx+si],al
00001DAA  0000              add [bx+si],al
00001DAC  0000              add [bx+si],al
00001DAE  0000              add [bx+si],al
00001DB0  0000              add [bx+si],al
00001DB2  0000              add [bx+si],al
00001DB4  0000              add [bx+si],al
00001DB6  0000              add [bx+si],al
00001DB8  0000              add [bx+si],al
00001DBA  0000              add [bx+si],al
00001DBC  0000              add [bx+si],al
00001DBE  0000              add [bx+si],al
00001DC0  0000              add [bx+si],al
00001DC2  0000              add [bx+si],al
00001DC4  0000              add [bx+si],al
00001DC6  0000              add [bx+si],al
00001DC8  0000              add [bx+si],al
00001DCA  0000              add [bx+si],al
00001DCC  0000              add [bx+si],al
00001DCE  0000              add [bx+si],al
00001DD0  0000              add [bx+si],al
00001DD2  0000              add [bx+si],al
00001DD4  0000              add [bx+si],al
00001DD6  0000              add [bx+si],al
00001DD8  0000              add [bx+si],al
00001DDA  0000              add [bx+si],al
00001DDC  0000              add [bx+si],al
00001DDE  0000              add [bx+si],al
00001DE0  0000              add [bx+si],al
00001DE2  0000              add [bx+si],al
00001DE4  0000              add [bx+si],al
00001DE6  0000              add [bx+si],al
00001DE8  0000              add [bx+si],al
00001DEA  0000              add [bx+si],al
00001DEC  0000              add [bx+si],al
00001DEE  0000              add [bx+si],al
00001DF0  0000              add [bx+si],al
00001DF2  0000              add [bx+si],al
00001DF4  0000              add [bx+si],al
00001DF6  0000              add [bx+si],al
00001DF8  0000              add [bx+si],al
00001DFA  0000              add [bx+si],al
00001DFC  0000              add [bx+si],al
00001DFE  0000              add [bx+si],al
00001E00  0000              add [bx+si],al
00001E02  0000              add [bx+si],al
00001E04  0000              add [bx+si],al
00001E06  0000              add [bx+si],al
00001E08  0000              add [bx+si],al
00001E0A  0000              add [bx+si],al
00001E0C  0000              add [bx+si],al
00001E0E  0000              add [bx+si],al
00001E10  0000              add [bx+si],al
00001E12  0000              add [bx+si],al
00001E14  0000              add [bx+si],al
00001E16  0000              add [bx+si],al
00001E18  0000              add [bx+si],al
00001E1A  0000              add [bx+si],al
00001E1C  0000              add [bx+si],al
00001E1E  0000              add [bx+si],al
00001E20  0000              add [bx+si],al
00001E22  0000              add [bx+si],al
00001E24  0000              add [bx+si],al
00001E26  0000              add [bx+si],al
00001E28  0000              add [bx+si],al
00001E2A  0000              add [bx+si],al
00001E2C  0000              add [bx+si],al
00001E2E  0000              add [bx+si],al
00001E30  0000              add [bx+si],al
00001E32  0000              add [bx+si],al
00001E34  0000              add [bx+si],al
00001E36  0000              add [bx+si],al
00001E38  0000              add [bx+si],al
00001E3A  0000              add [bx+si],al
00001E3C  0000              add [bx+si],al
00001E3E  0000              add [bx+si],al
00001E40  0000              add [bx+si],al
00001E42  0000              add [bx+si],al
00001E44  0000              add [bx+si],al
00001E46  0000              add [bx+si],al
00001E48  0000              add [bx+si],al
00001E4A  0000              add [bx+si],al
00001E4C  0000              add [bx+si],al
00001E4E  0000              add [bx+si],al
00001E50  0000              add [bx+si],al
00001E52  0000              add [bx+si],al
00001E54  0000              add [bx+si],al
00001E56  0000              add [bx+si],al
00001E58  0000              add [bx+si],al
00001E5A  0000              add [bx+si],al
00001E5C  0000              add [bx+si],al
00001E5E  0000              add [bx+si],al
00001E60  0000              add [bx+si],al
00001E62  0000              add [bx+si],al
00001E64  0000              add [bx+si],al
00001E66  0000              add [bx+si],al
00001E68  0000              add [bx+si],al
00001E6A  0000              add [bx+si],al
00001E6C  0000              add [bx+si],al
00001E6E  0000              add [bx+si],al
00001E70  0000              add [bx+si],al
00001E72  0000              add [bx+si],al
00001E74  0000              add [bx+si],al
00001E76  0000              add [bx+si],al
00001E78  0000              add [bx+si],al
00001E7A  0000              add [bx+si],al
00001E7C  0000              add [bx+si],al
00001E7E  0000              add [bx+si],al
00001E80  0000              add [bx+si],al
00001E82  0000              add [bx+si],al
00001E84  0000              add [bx+si],al
00001E86  0000              add [bx+si],al
00001E88  0000              add [bx+si],al
00001E8A  0000              add [bx+si],al
00001E8C  0000              add [bx+si],al
00001E8E  0000              add [bx+si],al
00001E90  0000              add [bx+si],al
00001E92  0000              add [bx+si],al
00001E94  0000              add [bx+si],al
00001E96  0000              add [bx+si],al
00001E98  0000              add [bx+si],al
00001E9A  0000              add [bx+si],al
00001E9C  0000              add [bx+si],al
00001E9E  0000              add [bx+si],al
00001EA0  0000              add [bx+si],al
00001EA2  0000              add [bx+si],al
00001EA4  0000              add [bx+si],al
00001EA6  0000              add [bx+si],al
00001EA8  0000              add [bx+si],al
00001EAA  0000              add [bx+si],al
00001EAC  0000              add [bx+si],al
00001EAE  0000              add [bx+si],al
00001EB0  0000              add [bx+si],al
00001EB2  0000              add [bx+si],al
00001EB4  0000              add [bx+si],al
00001EB6  0000              add [bx+si],al
00001EB8  0000              add [bx+si],al
00001EBA  0000              add [bx+si],al
00001EBC  0000              add [bx+si],al
00001EBE  0000              add [bx+si],al
00001EC0  0000              add [bx+si],al
00001EC2  0000              add [bx+si],al
00001EC4  0000              add [bx+si],al
00001EC6  0000              add [bx+si],al
00001EC8  0000              add [bx+si],al
00001ECA  0000              add [bx+si],al
00001ECC  0000              add [bx+si],al
00001ECE  0000              add [bx+si],al
00001ED0  0000              add [bx+si],al
00001ED2  0000              add [bx+si],al
00001ED4  0000              add [bx+si],al
00001ED6  0000              add [bx+si],al
00001ED8  0000              add [bx+si],al
00001EDA  0000              add [bx+si],al
00001EDC  0000              add [bx+si],al
00001EDE  0000              add [bx+si],al
00001EE0  0000              add [bx+si],al
00001EE2  0000              add [bx+si],al
00001EE4  0000              add [bx+si],al
00001EE6  0000              add [bx+si],al
00001EE8  0000              add [bx+si],al
00001EEA  0000              add [bx+si],al
00001EEC  0000              add [bx+si],al
00001EEE  0000              add [bx+si],al
00001EF0  0000              add [bx+si],al
00001EF2  0000              add [bx+si],al
00001EF4  0000              add [bx+si],al
00001EF6  0000              add [bx+si],al
00001EF8  0000              add [bx+si],al
00001EFA  0000              add [bx+si],al
00001EFC  0000              add [bx+si],al
00001EFE  0000              add [bx+si],al
00001F00  0000              add [bx+si],al
00001F02  0000              add [bx+si],al
00001F04  0000              add [bx+si],al
00001F06  0000              add [bx+si],al
00001F08  0000              add [bx+si],al
00001F0A  0000              add [bx+si],al
00001F0C  0000              add [bx+si],al
00001F0E  0000              add [bx+si],al
00001F10  0000              add [bx+si],al
00001F12  0000              add [bx+si],al
00001F14  0000              add [bx+si],al
00001F16  0000              add [bx+si],al
00001F18  0000              add [bx+si],al
00001F1A  0000              add [bx+si],al
00001F1C  0000              add [bx+si],al
00001F1E  0000              add [bx+si],al
00001F20  0000              add [bx+si],al
00001F22  0000              add [bx+si],al
00001F24  0000              add [bx+si],al
00001F26  0000              add [bx+si],al
00001F28  0000              add [bx+si],al
00001F2A  0000              add [bx+si],al
00001F2C  0000              add [bx+si],al
00001F2E  0000              add [bx+si],al
00001F30  0000              add [bx+si],al
00001F32  0000              add [bx+si],al
00001F34  0000              add [bx+si],al
00001F36  0000              add [bx+si],al
00001F38  0000              add [bx+si],al
00001F3A  0000              add [bx+si],al
00001F3C  0000              add [bx+si],al
00001F3E  0000              add [bx+si],al
00001F40  0000              add [bx+si],al
00001F42  0000              add [bx+si],al
00001F44  0000              add [bx+si],al
00001F46  0000              add [bx+si],al
00001F48  0000              add [bx+si],al
00001F4A  0000              add [bx+si],al
00001F4C  0000              add [bx+si],al
00001F4E  0000              add [bx+si],al
00001F50  0000              add [bx+si],al
00001F52  0000              add [bx+si],al
00001F54  0000              add [bx+si],al
00001F56  0000              add [bx+si],al
00001F58  0000              add [bx+si],al
00001F5A  0000              add [bx+si],al
00001F5C  0000              add [bx+si],al
00001F5E  0000              add [bx+si],al
00001F60  0000              add [bx+si],al
00001F62  0000              add [bx+si],al
00001F64  0000              add [bx+si],al
00001F66  0000              add [bx+si],al
00001F68  0000              add [bx+si],al
00001F6A  0000              add [bx+si],al
00001F6C  0000              add [bx+si],al
00001F6E  0000              add [bx+si],al
00001F70  0000              add [bx+si],al
00001F72  0000              add [bx+si],al
00001F74  0000              add [bx+si],al
00001F76  0000              add [bx+si],al
00001F78  0000              add [bx+si],al
00001F7A  0000              add [bx+si],al
00001F7C  0000              add [bx+si],al
00001F7E  0000              add [bx+si],al
00001F80  0000              add [bx+si],al
00001F82  0000              add [bx+si],al
00001F84  0000              add [bx+si],al
00001F86  0000              add [bx+si],al
00001F88  0000              add [bx+si],al
00001F8A  0000              add [bx+si],al
00001F8C  0000              add [bx+si],al
00001F8E  0000              add [bx+si],al
00001F90  0000              add [bx+si],al
00001F92  0000              add [bx+si],al
00001F94  0000              add [bx+si],al
00001F96  0000              add [bx+si],al
00001F98  0000              add [bx+si],al
00001F9A  0000              add [bx+si],al
00001F9C  0000              add [bx+si],al
00001F9E  0000              add [bx+si],al
00001FA0  0000              add [bx+si],al
00001FA2  0000              add [bx+si],al
00001FA4  0000              add [bx+si],al
00001FA6  0000              add [bx+si],al
00001FA8  0000              add [bx+si],al
00001FAA  0000              add [bx+si],al
00001FAC  0000              add [bx+si],al
00001FAE  0000              add [bx+si],al
00001FB0  0000              add [bx+si],al
00001FB2  0000              add [bx+si],al
00001FB4  0000              add [bx+si],al
00001FB6  0000              add [bx+si],al
00001FB8  0000              add [bx+si],al
00001FBA  0000              add [bx+si],al
00001FBC  0000              add [bx+si],al
00001FBE  0000              add [bx+si],al
00001FC0  0000              add [bx+si],al
00001FC2  0000              add [bx+si],al
00001FC4  0000              add [bx+si],al
00001FC6  0000              add [bx+si],al
00001FC8  0000              add [bx+si],al
00001FCA  0000              add [bx+si],al
00001FCC  0000              add [bx+si],al
00001FCE  0000              add [bx+si],al
00001FD0  0000              add [bx+si],al
00001FD2  0000              add [bx+si],al
00001FD4  0000              add [bx+si],al
00001FD6  0000              add [bx+si],al
00001FD8  0000              add [bx+si],al
00001FDA  0000              add [bx+si],al
00001FDC  0000              add [bx+si],al
00001FDE  0000              add [bx+si],al
00001FE0  0000              add [bx+si],al
00001FE2  0000              add [bx+si],al
00001FE4  0000              add [bx+si],al
00001FE6  0000              add [bx+si],al
00001FE8  0000              add [bx+si],al
00001FEA  0000              add [bx+si],al
00001FEC  0000              add [bx+si],al
00001FEE  0000              add [bx+si],al
00001FF0  0000              add [bx+si],al
00001FF2  0000              add [bx+si],al
00001FF4  0000              add [bx+si],al
00001FF6  0000              add [bx+si],al
00001FF8  0000              add [bx+si],al
00001FFA  0000              add [bx+si],al
00001FFC  0000              add [bx+si],al
00001FFE  0000              add [bx+si],al
00002000  1122              adc [bp+si],sp
00002002  105300            adc [bp+di+0x0],dl
00002005  0000              add [bx+si],al
00002007  0011              add [bx+di],dl
00002009  40                inc ax
0000200A  64796C            fs jns 0x2079
0000200D  645F              fs pop di
0000200F  7374              jnc 0x2085
00002011  7562              jnz 0x2075
00002013  5F                pop di
00002014  62696E            bound bp,[bx+di+0x6e]
00002017  64657200          gs jc 0x201b
0000201B  51                push cx
0000201C  7200              jc 0x201e
0000201E  90                nop
0000201F  007210            add [bp+si+0x10],dh
00002022  11405F            adc [bx+si+0x5f],ax
00002025  6D                insw
00002026  656D              gs insw
00002028  636D70            arpl [di+0x70],bp
0000202B  00900072          add [bx+si+0x7200],dl
0000202F  1811              sbb [bx+di],dl
00002031  40                inc ax
00002032  5F                pop di
00002033  7072              jo 0x20a7
00002035  696E746600        imul bp,[bp+0x74],word 0x66
0000203A  90                nop
0000203B  007220            add [bp+si+0x20],dh
0000203E  11405F            adc [bx+si+0x5f],ax
00002041  7363              jnc 0x20a6
00002043  61                popaw
00002044  6E                outsb
00002045  6600900000        o32 add [bx+si+0x0],dl
0000204A  0000              add [bx+si],al
0000204C  0000              add [bx+si],al
0000204E  0000              add [bx+si],al
00002050  0001              add [bx+di],al
00002052  5F                pop di
00002053  0005              add [di],al
00002055  0002              add [bp+si],al
00002057  5F                pop di
00002058  6D                insw
00002059  685F65            push word 0x655f
0000205C  7865              js 0x20c3
0000205E  637574            arpl [di+0x74],si
00002061  655F              gs pop di
00002063  686561            push word 0x6165
00002066  64657200          gs jc 0x206a
0000206A  216D61            and [di+0x61],bp
0000206D  696E002502        imul bp,[bp+0x0],word 0x225
00002072  0000              add [bx+si],al
00002074  0003              add [bp+di],al
00002076  00901B00          add [bx+si+0x1b],dl
0000207A  0000              add [bx+si],al
0000207C  0000              add [bx+si],al
0000207E  0000              add [bx+si],al
00002080  90                nop
00002081  1B00              sbb ax,[bx+si]
00002083  0000              add [bx+si],al
00002085  0000              add [bx+si],al
00002087  0002              add [bp+si],al
00002089  0000              add [bx+si],al
0000208B  000F              add [bx],cl
0000208D  0110              add [bx+si],dx
0000208F  0000              add [bx+si],al
00002091  0000              add [bx+si],al
00002093  0001              add [bx+di],al
00002095  0000              add [bx+si],al
00002097  00160000          add [0x0],dl
0000209B  000F              add [bx],cl
0000209D  0100              add [bx+si],ax
0000209F  00900D00          add [bx+si+0xd],dl
000020A3  0001              add [bx+di],al
000020A5  0000              add [bx+si],al
000020A7  001C              add [si],bl
000020A9  0000              add [bx+si],al
000020AB  0001              add [bx+di],al
000020AD  0000              add [bx+si],al
000020AF  0100              add [bx+si],ax
000020B1  0000              add [bx+si],al
000020B3  0000              add [bx+si],al
000020B5  0000              add [bx+si],al
000020B7  0024              add [si],ah
000020B9  0000              add [bx+si],al
000020BB  0001              add [bx+di],al
000020BD  0000              add [bx+si],al
000020BF  0100              add [bx+si],ax
000020C1  0000              add [bx+si],al
000020C3  0000              add [bx+si],al
000020C5  0000              add [bx+si],al
000020C7  002C              add [si],ch
000020C9  0000              add [bx+si],al
000020CB  0001              add [bx+di],al
000020CD  0000              add [bx+si],al
000020CF  0100              add [bx+si],ax
000020D1  0000              add [bx+si],al
000020D3  0000              add [bx+si],al
000020D5  0000              add [bx+si],al
000020D7  0033              add [bp+di],dh
000020D9  0000              add [bx+si],al
000020DB  0001              add [bx+di],al
000020DD  0000              add [bx+si],al
000020DF  0100              add [bx+si],ax
000020E1  0000              add [bx+si],al
000020E3  0000              add [bx+si],al
000020E5  0000              add [bx+si],al
000020E7  0002              add [bp+si],al
000020E9  0000              add [bx+si],al
000020EB  0003              add [bp+di],al
000020ED  0000              add [bx+si],al
000020EF  0004              add [si],al
000020F1  0000              add [bx+si],al
000020F3  0005              add [di],al
000020F5  0000              add [bx+si],al
000020F7  0000              add [bx+si],al
000020F9  0000              add [bx+si],al
000020FB  40                inc ax
000020FC  0200              add al,[bx+si]
000020FE  0000              add [bx+si],al
00002100  0300              add ax,[bx+si]
00002102  0000              add [bx+si],al
00002104  0400              add al,0x0
00002106  0000              add [bx+si],al
00002108  2000              and [bx+si],al
0000210A  5F                pop di
0000210B  5F                pop di
0000210C  6D                insw
0000210D  685F65            push word 0x655f
00002110  7865              js 0x2177
00002112  637574            arpl [di+0x74],si
00002115  655F              gs pop di
00002117  686561            push word 0x6165
0000211A  64657200          gs jc 0x211e
0000211E  5F                pop di
0000211F  6D                insw
00002120  61                popaw
00002121  696E005F6D        imul bp,[bp+0x0],word 0x6d5f
00002126  656D              gs insw
00002128  636D70            arpl [di+0x70],bp
0000212B  005F70            add [bx+0x70],bl
0000212E  7269              jc 0x2199
00002130  6E                outsb
00002131  7466              jz 0x2199
00002133  005F73            add [bx+0x73],bl
00002136  63616E            arpl [bx+di+0x6e],sp
00002139  66006479          o32 add [si+0x79],ah
0000213D  6C                insb
0000213E  645F              fs pop di
00002140  7374              jnc 0x21b6
00002142  7562              jnz 0x21a6
00002144  5F                pop di
00002145  62696E            bound bp,[bx+di+0x6e]
00002148  64657200          gs jc 0x214c
0000214C  0000              add [bx+si],al
0000214E  0000              add [bx+si],al
